Archive member included because of file (symbol)

C:/Program Files (x86)/Rowley Associates Limited/CrossWorks for ARM 2.3/lib/libm_v7m_t_le.a(libm_asm.o)
                              THUMB Debug/fet.o (__floatsisf)
C:/Program Files (x86)/Rowley Associates Limited/CrossWorks for ARM 2.3/lib/libm_v7m_t_le.a(libm2.o)
                              THUMB Debug/fet.o (sinf)
C:/Program Files (x86)/Rowley Associates Limited/CrossWorks for ARM 2.3/lib/libm_v7m_t_le.a(libm2_asm.o)
                              C:/Program Files (x86)/Rowley Associates Limited/CrossWorks for ARM 2.3/lib/libm_v7m_t_le.a(libm2.o) (fabs)
C:/Program Files (x86)/Rowley Associates Limited/CrossWorks for ARM 2.3/lib/libc_v7m_t_le.a(libc2.o)
                              THUMB Debug/cli.o (bsearch)
C:/Program Files (x86)/Rowley Associates Limited/CrossWorks for ARM 2.3/lib/libc_v7m_t_le.a(libc2_asm.o)
                              THUMB Debug/cli.o (memcpy)
C:/Program Files (x86)/Rowley Associates Limited/CrossWorks for ARM 2.3/lib/libc_v7m_t_le.a(__vfprintf_double_long_long.o)
                              (__vfprintf_double_long_long)
C:/Program Files (x86)/Rowley Associates Limited/CrossWorks for ARM 2.3/lib/libc_v7m_t_le.a(__vfscanf_double_long_long.o)
                              (__vfscanf_double_long_long)
C:/Program Files (x86)/Rowley Associates Limited/CrossWorks for ARM 2.3/lib/libc_v7m_t_le.a(libc_asm.o)
                              C:/Program Files (x86)/Rowley Associates Limited/CrossWorks for ARM 2.3/lib/libc_v7m_t_le.a(libc2.o) (__umoddi3)
C:/Program Files (x86)/Rowley Associates Limited/CrossWorks for ARM 2.3/lib/libdebugio_v7m_t_le.a(libdebugio.o)
                              (__do_debug_operation_mempoll)
C:/Program Files (x86)/Rowley Associates Limited/CrossWorks for ARM 2.3/lib/libc_user_libc_v7m_t_le.a(user_libc.o)
                              C:/Program Files (x86)/Rowley Associates Limited/CrossWorks for ARM 2.3/lib/libm_v7m_t_le.a(libm2.o) (__errno)

Discarded input sections

 .text          0x00000000        0x0 THUMB Debug/main.o
 .data          0x00000000        0x0 THUMB Debug/main.o
 .bss           0x00000000        0x0 THUMB Debug/main.o
 .text.reset_wait
                0x00000000       0x48 THUMB Debug/main.o
 .bss.buf       0x00000000       0x40 THUMB Debug/main.o
 .text          0x00000000        0x0 THUMB Debug/fet.o
 .data          0x00000000        0x0 THUMB Debug/fet.o
 .bss           0x00000000        0x0 THUMB Debug/fet.o
 .text.fetSelfTest
                0x00000000      0x280 THUMB Debug/fet.o
 .text.fetTest  0x00000000       0x54 THUMB Debug/fet.o
 .text          0x00000000        0x0 THUMB Debug/digital.o
 .data          0x00000000        0x0 THUMB Debug/digital.o
 .bss           0x00000000        0x0 THUMB Debug/digital.o
 .text          0x00000000        0x0 THUMB Debug/rcc.o
 .data          0x00000000        0x0 THUMB Debug/rcc.o
 .bss           0x00000000        0x0 THUMB Debug/rcc.o
 .text          0x00000000        0x0 THUMB Debug/adc.o
 .data          0x00000000        0x0 THUMB Debug/adc.o
 .bss           0x00000000        0x0 THUMB Debug/adc.o
 .text.adcGetInstantCurrent
                0x00000000       0x48 THUMB Debug/adc.o
 .bss.numLoops  0x00000000        0x4 THUMB Debug/adc.o
 .text          0x00000000        0x0 THUMB Debug/serial.o
 .data          0x00000000        0x0 THUMB Debug/serial.o
 .bss           0x00000000        0x0 THUMB Debug/serial.o
 .text          0x00000000        0x0 THUMB Debug/pwm.o
 .data          0x00000000        0x0 THUMB Debug/pwm.o
 .bss           0x00000000        0x0 THUMB Debug/pwm.o
 .text          0x00000000        0x0 THUMB Debug/timer.o
 .data          0x00000000        0x0 THUMB Debug/timer.o
 .bss           0x00000000        0x0 THUMB Debug/timer.o
 .text.timerAlarmActive3
                0x00000000       0x10 THUMB Debug/timer.o
 .text          0x00000000        0x0 THUMB Debug/run.o
 .data          0x00000000        0x0 THUMB Debug/run.o
 .bss           0x00000000        0x0 THUMB Debug/run.o
 .text          0x00000000        0x0 THUMB Debug/cli.o
 .data          0x00000000        0x0 THUMB Debug/cli.o
 .bss           0x00000000        0x0 THUMB Debug/cli.o
 .text          0x00000000        0x0 THUMB Debug/config.o
 .data          0x00000000        0x0 THUMB Debug/config.o
 .bss           0x00000000        0x0 THUMB Debug/config.o
 .text.configSetParam
                0x00000000       0x48 THUMB Debug/config.o
 .text.configGetParam
                0x00000000       0x28 THUMB Debug/config.o
 .text          0x00000000        0x0 THUMB Debug/binary.o
 .data          0x00000000        0x0 THUMB Debug/binary.o
 .bss           0x00000000        0x0 THUMB Debug/binary.o
 .text          0x00000000        0x0 THUMB Debug/ow.o
 .data          0x00000000        0x0 THUMB Debug/ow.o
 .bss           0x00000000        0x0 THUMB Debug/ow.o
 .text          0x00000000        0x0 THUMB Debug/can.o
 .data          0x00000000        0x0 THUMB Debug/can.o
 .bss           0x00000000        0x0 THUMB Debug/can.o
 .text          0x00000000        0x0 THUMB Debug/xxhash.o
 .data          0x00000000        0x0 THUMB Debug/xxhash.o
 .bss           0x00000000        0x0 THUMB Debug/xxhash.o
 .text.XXH32_sizeofState
                0x00000000        0x8 THUMB Debug/xxhash.o
 .text.XXH32_resetState
                0x00000000       0x40 THUMB Debug/xxhash.o
 .text.XXH32_init
                0x00000000       0x18 THUMB Debug/xxhash.o
 .text.XXH32_update
                0x00000000      0x2c0 THUMB Debug/xxhash.o
 .text.XXH32_intermediateDigest
                0x00000000      0x1ac THUMB Debug/xxhash.o
 .text.XXH32_digest
                0x00000000       0x14 THUMB Debug/xxhash.o
 .text          0x00000000        0x0 THUMB Debug/thumb_crt0.o
 .data          0x00000000        0x0 THUMB Debug/thumb_crt0.o
 .bss           0x00000000        0x0 THUMB Debug/thumb_crt0.o
 .stack         0x00000000        0x0 THUMB Debug/thumb_crt0.o
 .stack_process
                0x00000000        0x0 THUMB Debug/thumb_crt0.o
 .heap          0x00000000        0x0 THUMB Debug/thumb_crt0.o
 .text          0x00000000        0x0 THUMB Debug/STM32_Startup.o
 .data          0x00000000        0x0 THUMB Debug/STM32_Startup.o
 .bss           0x00000000        0x0 THUMB Debug/STM32_Startup.o
 .text          0x00000000        0x0 THUMB Debug/getbuildnum.o
 .data          0x00000000        0x0 THUMB Debug/getbuildnum.o
 .bss           0x00000000        0x0 THUMB Debug/getbuildnum.o
 .text          0x00000000        0x0 THUMB Debug/stm32f10x_gpio.o
 .data          0x00000000        0x0 THUMB Debug/stm32f10x_gpio.o
 .bss           0x00000000        0x0 THUMB Debug/stm32f10x_gpio.o
 .text.GPIO_DeInit
                0x00000000      0x164 THUMB Debug/stm32f10x_gpio.o
 .text.GPIO_AFIODeInit
                0x00000000       0x1c THUMB Debug/stm32f10x_gpio.o
 .text.GPIO_StructInit
                0x00000000       0x14 THUMB Debug/stm32f10x_gpio.o
 .text.GPIO_ReadInputDataBit
                0x00000000       0xd8 THUMB Debug/stm32f10x_gpio.o
 .text.GPIO_ReadInputData
                0x00000000       0x70 THUMB Debug/stm32f10x_gpio.o
 .text.GPIO_ReadOutputDataBit
                0x00000000       0xd8 THUMB Debug/stm32f10x_gpio.o
 .text.GPIO_ReadOutputData
                0x00000000       0x70 THUMB Debug/stm32f10x_gpio.o
 .text.GPIO_SetBits
                0x00000000       0x80 THUMB Debug/stm32f10x_gpio.o
 .text.GPIO_ResetBits
                0x00000000       0x80 THUMB Debug/stm32f10x_gpio.o
 .text.GPIO_WriteBit
                0x00000000       0xec THUMB Debug/stm32f10x_gpio.o
 .text.GPIO_Write
                0x00000000       0x70 THUMB Debug/stm32f10x_gpio.o
 .text.GPIO_PinLockConfig
                0x00000000       0x8c THUMB Debug/stm32f10x_gpio.o
 .text.GPIO_EventOutputConfig
                0x00000000       0x48 THUMB Debug/stm32f10x_gpio.o
 .text.GPIO_EventOutputCmd
                0x00000000       0x24 THUMB Debug/stm32f10x_gpio.o
 .text.GPIO_EXTILineConfig
                0x00000000       0x6c THUMB Debug/stm32f10x_gpio.o
 .text.GPIO_ETH_MediaInterfaceConfig
                0x00000000       0x24 THUMB Debug/stm32f10x_gpio.o
 .text          0x00000000        0x0 THUMB Debug/stm32f10x_rcc.o
 .data          0x00000000        0x0 THUMB Debug/stm32f10x_rcc.o
 .bss           0x00000000        0x0 THUMB Debug/stm32f10x_rcc.o
 .text.RCC_DeInit
                0x00000000       0x44 THUMB Debug/stm32f10x_rcc.o
 .text.RCC_HSEConfig
                0x00000000       0xbc THUMB Debug/stm32f10x_rcc.o
 .text.RCC_AdjustHSICalibrationValue
                0x00000000       0x30 THUMB Debug/stm32f10x_rcc.o
 .text.RCC_PLLConfig
                0x00000000       0xa0 THUMB Debug/stm32f10x_rcc.o
 .text.RCC_PLLCmd
                0x00000000       0x24 THUMB Debug/stm32f10x_rcc.o
 .text.RCC_SYSCLKConfig
                0x00000000       0x2c THUMB Debug/stm32f10x_rcc.o
 .text.RCC_GetSYSCLKSource
                0x00000000       0x10 THUMB Debug/stm32f10x_rcc.o
 .text.RCC_HCLKConfig
                0x00000000       0x4c THUMB Debug/stm32f10x_rcc.o
 .text.RCC_PCLK1Config
                0x00000000       0x44 THUMB Debug/stm32f10x_rcc.o
 .text.RCC_PCLK2Config
                0x00000000       0x44 THUMB Debug/stm32f10x_rcc.o
 .text.RCC_ITConfig
                0x00000000       0x58 THUMB Debug/stm32f10x_rcc.o
 .text.RCC_USBCLKConfig
                0x00000000       0x24 THUMB Debug/stm32f10x_rcc.o
 .text.RCC_LSEConfig
                0x00000000       0x6c THUMB Debug/stm32f10x_rcc.o
 .text.RCC_LSICmd
                0x00000000       0x24 THUMB Debug/stm32f10x_rcc.o
 .text.RCC_RTCCLKConfig
                0x00000000       0x38 THUMB Debug/stm32f10x_rcc.o
 .text.RCC_RTCCLKCmd
                0x00000000       0x24 THUMB Debug/stm32f10x_rcc.o
 .text.RCC_APB2PeriphResetCmd
                0x00000000       0x5c THUMB Debug/stm32f10x_rcc.o
 .text.RCC_BackupResetCmd
                0x00000000       0x24 THUMB Debug/stm32f10x_rcc.o
 .text.RCC_ClockSecuritySystemCmd
                0x00000000       0x24 THUMB Debug/stm32f10x_rcc.o
 .text.RCC_MCOConfig
                0x00000000       0x34 THUMB Debug/stm32f10x_rcc.o
 .text.RCC_WaitForHSEStartUp
                0x00000000       0x3c THUMB Debug/stm32f10x_rcc.o
 .text.RCC_GetITStatus
                0x00000000       0x44 THUMB Debug/stm32f10x_rcc.o
 .text.RCC_ClearITPendingBit
                0x00000000       0x28 THUMB Debug/stm32f10x_rcc.o
 .text          0x00000000        0x0 THUMB Debug/system_stm32f10x.o
 .data          0x00000000        0x0 THUMB Debug/system_stm32f10x.o
 .bss           0x00000000        0x0 THUMB Debug/system_stm32f10x.o
 .text.SystemCoreClockUpdate
                0x00000000       0xe0 THUMB Debug/system_stm32f10x.o
 .data.AHBPrescTable
                0x00000000       0x10 THUMB Debug/system_stm32f10x.o
 .text          0x00000000        0x0 THUMB Debug/stm32f10x_tim.o
 .data          0x00000000        0x0 THUMB Debug/stm32f10x_tim.o
 .bss           0x00000000        0x0 THUMB Debug/stm32f10x_tim.o
 .text.TIM_DeInit
                0x00000000      0x36c THUMB Debug/stm32f10x_tim.o
 .text.TIM_BDTRConfig
                0x00000000      0x11c THUMB Debug/stm32f10x_tim.o
 .text.TIM_ICStructInit
                0x00000000       0x14 THUMB Debug/stm32f10x_tim.o
 .text.TIM_BDTRStructInit
                0x00000000       0x14 THUMB Debug/stm32f10x_tim.o
 .text.TIM_CtrlPWMOutputs
                0x00000000       0x90 THUMB Debug/stm32f10x_tim.o
 .text.TIM_ITConfig
                0x00000000      0x124 THUMB Debug/stm32f10x_tim.o
 .text.TIM_GenerateEvent
                0x00000000       0xf8 THUMB Debug/stm32f10x_tim.o
 .text.TIM_DMAConfig
                0x00000000      0x114 THUMB Debug/stm32f10x_tim.o
 .text.TIM_DMACmd
                0x00000000       0xdc THUMB Debug/stm32f10x_tim.o
 .text.TIM_InternalClockConfig
                0x00000000       0x8c THUMB Debug/stm32f10x_tim.o
 .text.TIM_ETRConfig
                0x00000000       0xc0 THUMB Debug/stm32f10x_tim.o
 .text.TIM_ETRClockMode2Config
                0x00000000       0xc4 THUMB Debug/stm32f10x_tim.o
 .text.TIM_ETRClockMode1Config
                0x00000000       0xd0 THUMB Debug/stm32f10x_tim.o
 .text.TIM_PrescalerConfig
                0x00000000       0xf8 THUMB Debug/stm32f10x_tim.o
 .text.TIM_CounterModeConfig
                0x00000000       0x90 THUMB Debug/stm32f10x_tim.o
 .text.TIM_TIxExternalClockConfig
                0x00000000       0xfc THUMB Debug/stm32f10x_tim.o
 .text.TIM_ITRxExternalClockConfig
                0x00000000       0xb0 THUMB Debug/stm32f10x_tim.o
 .text.TIM_EncoderInterfaceConfig
                0x00000000       0xf8 THUMB Debug/stm32f10x_tim.o
 .text.TIM_ForcedOC1Config
                0x00000000       0xf0 THUMB Debug/stm32f10x_tim.o
 .text.TIM_ForcedOC2Config
                0x00000000       0xac THUMB Debug/stm32f10x_tim.o
 .text.TIM_ForcedOC3Config
                0x00000000       0x84 THUMB Debug/stm32f10x_tim.o
 .text.TIM_ForcedOC4Config
                0x00000000       0x88 THUMB Debug/stm32f10x_tim.o
 .text.TIM_SelectCOM
                0x00000000       0x88 THUMB Debug/stm32f10x_tim.o
 .text.TIM_SelectCCDMA
                0x00000000       0xb0 THUMB Debug/stm32f10x_tim.o
 .text.TIM_CCPreloadControl
                0x00000000       0x98 THUMB Debug/stm32f10x_tim.o
 .text.TIM_OC1FastConfig
                0x00000000       0xf0 THUMB Debug/stm32f10x_tim.o
 .text.TIM_OC2FastConfig
                0x00000000       0xac THUMB Debug/stm32f10x_tim.o
 .text.TIM_OC3FastConfig
                0x00000000       0x84 THUMB Debug/stm32f10x_tim.o
 .text.TIM_OC4FastConfig
                0x00000000       0x88 THUMB Debug/stm32f10x_tim.o
 .text.TIM_ClearOC1Ref
                0x00000000       0x84 THUMB Debug/stm32f10x_tim.o
 .text.TIM_ClearOC2Ref
                0x00000000       0x84 THUMB Debug/stm32f10x_tim.o
 .text.TIM_ClearOC3Ref
                0x00000000       0x84 THUMB Debug/stm32f10x_tim.o
 .text.TIM_ClearOC4Ref
                0x00000000       0x84 THUMB Debug/stm32f10x_tim.o
 .text.TIM_OC1PolarityConfig
                0x00000000       0xf0 THUMB Debug/stm32f10x_tim.o
 .text.TIM_OC1NPolarityConfig
                0x00000000       0x7c THUMB Debug/stm32f10x_tim.o
 .text.TIM_OC2PolarityConfig
                0x00000000       0xac THUMB Debug/stm32f10x_tim.o
 .text.TIM_OC2NPolarityConfig
                0x00000000       0x5c THUMB Debug/stm32f10x_tim.o
 .text.TIM_OC3PolarityConfig
                0x00000000       0x88 THUMB Debug/stm32f10x_tim.o
 .text.TIM_OC3NPolarityConfig
                0x00000000       0x5c THUMB Debug/stm32f10x_tim.o
 .text.TIM_OC4PolarityConfig
                0x00000000       0x88 THUMB Debug/stm32f10x_tim.o
 .text.TIM_CCxCmd
                0x00000000      0x118 THUMB Debug/stm32f10x_tim.o
 .text.TIM_CCxNCmd
                0x00000000       0xa4 THUMB Debug/stm32f10x_tim.o
 .text.TIM_SelectOCxM
                0x00000000      0x160 THUMB Debug/stm32f10x_tim.o
 .text.TIM_UpdateDisableConfig
                0x00000000      0x110 THUMB Debug/stm32f10x_tim.o
 .text.TIM_UpdateRequestConfig
                0x00000000      0x110 THUMB Debug/stm32f10x_tim.o
 .text.TIM_SelectHallSensor
                0x00000000       0xb0 THUMB Debug/stm32f10x_tim.o
 .text.TIM_SelectOnePulseMode
                0x00000000      0x10c THUMB Debug/stm32f10x_tim.o
 .text.TIM_SelectOutputTrigger
                0x00000000       0xdc THUMB Debug/stm32f10x_tim.o
 .text.TIM_SetCounter
                0x00000000       0xe0 THUMB Debug/stm32f10x_tim.o
 .text.TIM_SetAutoreload
                0x00000000       0xe0 THUMB Debug/stm32f10x_tim.o
 .text.TIM_SetCompare1
                0x00000000       0xc8 THUMB Debug/stm32f10x_tim.o
 .text.TIM_SetCompare2
                0x00000000       0x80 THUMB Debug/stm32f10x_tim.o
 .text.TIM_SetCompare3
                0x00000000       0x5c THUMB Debug/stm32f10x_tim.o
 .text.TIM_SetCompare4
                0x00000000       0x60 THUMB Debug/stm32f10x_tim.o
 .text.TIM_SetIC3Prescaler
                0x00000000       0x90 THUMB Debug/stm32f10x_tim.o
 .text.TIM_SetIC4Prescaler
                0x00000000       0x94 THUMB Debug/stm32f10x_tim.o
 .text.TIM_ICInit
                0x00000000      0x528 THUMB Debug/stm32f10x_tim.o
 .text.TIM_SetClockDivision
                0x00000000       0xfc THUMB Debug/stm32f10x_tim.o
 .text.TIM_GetCapture1
                0x00000000       0xc8 THUMB Debug/stm32f10x_tim.o
 .text.TIM_GetCapture2
                0x00000000       0x80 THUMB Debug/stm32f10x_tim.o
 .text.TIM_GetCapture3
                0x00000000       0x5c THUMB Debug/stm32f10x_tim.o
 .text.TIM_GetCapture4
                0x00000000       0x60 THUMB Debug/stm32f10x_tim.o
 .text.TIM_GetCounter
                0x00000000       0xe0 THUMB Debug/stm32f10x_tim.o
 .text.TIM_GetPrescaler
                0x00000000       0xe0 THUMB Debug/stm32f10x_tim.o
 .text.TIM_GetFlagStatus
                0x00000000      0x134 THUMB Debug/stm32f10x_tim.o
 .text.TIM_ClearFlag
                0x00000000      0x100 THUMB Debug/stm32f10x_tim.o
 .text          0x00000000        0x0 THUMB Debug/stm32f10x_dbgmcu.o
 .data          0x00000000        0x0 THUMB Debug/stm32f10x_dbgmcu.o
 .bss           0x00000000        0x0 THUMB Debug/stm32f10x_dbgmcu.o
 .text.DBGMCU_GetREVID
                0x00000000       0x10 THUMB Debug/stm32f10x_dbgmcu.o
 .text.DBGMCU_GetDEVID
                0x00000000       0x14 THUMB Debug/stm32f10x_dbgmcu.o
 .text          0x00000000        0x0 THUMB Debug/stm32f10x_adc.o
 .data          0x00000000        0x0 THUMB Debug/stm32f10x_adc.o
 .bss           0x00000000        0x0 THUMB Debug/stm32f10x_adc.o
 .text.ADC_DeInit
                0x00000000       0x98 THUMB Debug/stm32f10x_adc.o
 .text.ADC_StructInit
                0x00000000       0x18 THUMB Debug/stm32f10x_adc.o
 .text.ADC_ITConfig
                0x00000000       0x80 THUMB Debug/stm32f10x_adc.o
 .text.ADC_GetSoftwareStartConvStatus
                0x00000000       0x40 THUMB Debug/stm32f10x_adc.o
 .text.ADC_DiscModeChannelCountConfig
                0x00000000       0x68 THUMB Debug/stm32f10x_adc.o
 .text.ADC_DiscModeCmd
                0x00000000       0x64 THUMB Debug/stm32f10x_adc.o
 .text.ADC_GetConversionValue
                0x00000000       0x40 THUMB Debug/stm32f10x_adc.o
 .text.ADC_GetDualModeConversionValue
                0x00000000        0xc THUMB Debug/stm32f10x_adc.o
 .text.ADC_AutoInjectedConvCmd
                0x00000000       0x64 THUMB Debug/stm32f10x_adc.o
 .text.ADC_InjectedDiscModeCmd
                0x00000000       0x64 THUMB Debug/stm32f10x_adc.o
 .text.ADC_SoftwareStartInjectedConvCmd
                0x00000000       0x64 THUMB Debug/stm32f10x_adc.o
 .text.ADC_GetSoftwareStartInjectedConvCmdStatus
                0x00000000       0x40 THUMB Debug/stm32f10x_adc.o
 .text.ADC_SetInjectedOffset
                0x00000000       0x8c THUMB Debug/stm32f10x_adc.o
 .text.ADC_GetInjectedConversionValue
                0x00000000       0x78 THUMB Debug/stm32f10x_adc.o
 .text.ADC_AnalogWatchdogCmd
                0x00000000       0x94 THUMB Debug/stm32f10x_adc.o
 .text.ADC_AnalogWatchdogThresholdsConfig
                0x00000000       0x70 THUMB Debug/stm32f10x_adc.o
 .text.ADC_AnalogWatchdogSingleChannelConfig
                0x00000000       0x5c THUMB Debug/stm32f10x_adc.o
 .text.ADC_TempSensorVrefintCmd
                0x00000000       0x40 THUMB Debug/stm32f10x_adc.o
 .text.ADC_GetFlagStatus
                0x00000000       0x6c THUMB Debug/stm32f10x_adc.o
 .text.ADC_ClearFlag
                0x00000000       0x5c THUMB Debug/stm32f10x_adc.o
 .text.ADC_GetITStatus
                0x00000000       0x78 THUMB Debug/stm32f10x_adc.o
 .text.ADC_ClearITPendingBit
                0x00000000       0x5c THUMB Debug/stm32f10x_adc.o
 .text          0x00000000        0x0 THUMB Debug/stm32f10x_dma.o
 .data          0x00000000        0x0 THUMB Debug/stm32f10x_dma.o
 .bss           0x00000000        0x0 THUMB Debug/stm32f10x_dma.o
 .text.DMA_StructInit
                0x00000000       0x1c THUMB Debug/stm32f10x_dma.o
 .text.DMA_SetCurrDataCounter
                0x00000000       0xac THUMB Debug/stm32f10x_dma.o
 .text.DMA_GetFlagStatus
                0x00000000      0x1f0 THUMB Debug/stm32f10x_dma.o
 .text.DMA_ClearFlag
                0x00000000       0x3c THUMB Debug/stm32f10x_dma.o
 .text.DMA_GetITStatus
                0x00000000      0x1f0 THUMB Debug/stm32f10x_dma.o
 .text          0x00000000        0x0 THUMB Debug/misc.o
 .data          0x00000000        0x0 THUMB Debug/misc.o
 .bss           0x00000000        0x0 THUMB Debug/misc.o
 .text.NVIC_PriorityGroupConfig
                0x00000000       0x48 THUMB Debug/misc.o
 .text.NVIC_SetVectorTable
                0x00000000       0x54 THUMB Debug/misc.o
 .text.NVIC_SystemLPConfig
                0x00000000       0x5c THUMB Debug/misc.o
 .text.SysTick_CLKSourceConfig
                0x00000000       0x48 THUMB Debug/misc.o
 .text          0x00000000        0x0 THUMB Debug/stm32f10x_usart.o
 .data          0x00000000        0x0 THUMB Debug/stm32f10x_usart.o
 .bss           0x00000000        0x0 THUMB Debug/stm32f10x_usart.o
 .text.USART_DeInit
                0x00000000       0xfc THUMB Debug/stm32f10x_usart.o
 .text.USART_StructInit
                0x00000000       0x1c THUMB Debug/stm32f10x_usart.o
 .text.USART_ClockInit
                0x00000000       0xc8 THUMB Debug/stm32f10x_usart.o
 .text.USART_ClockStructInit
                0x00000000       0x10 THUMB Debug/stm32f10x_usart.o
 .text.USART_ITConfig
                0x00000000      0x134 THUMB Debug/stm32f10x_usart.o
 .text.USART_SetAddress
                0x00000000       0x80 THUMB Debug/stm32f10x_usart.o
 .text.USART_WakeUpConfig
                0x00000000       0x84 THUMB Debug/stm32f10x_usart.o
 .text.USART_ReceiverWakeUpCmd
                0x00000000       0x88 THUMB Debug/stm32f10x_usart.o
 .text.USART_LINBreakDetectLengthConfig
                0x00000000       0x84 THUMB Debug/stm32f10x_usart.o
 .text.USART_LINCmd
                0x00000000       0x88 THUMB Debug/stm32f10x_usart.o
 .text.USART_SendData
                0x00000000       0x74 THUMB Debug/stm32f10x_usart.o
 .text.USART_ReceiveData
                0x00000000       0x5c THUMB Debug/stm32f10x_usart.o
 .text.USART_SendBreak
                0x00000000       0x5c THUMB Debug/stm32f10x_usart.o
 .text.USART_SetGuardTime
                0x00000000       0x4c THUMB Debug/stm32f10x_usart.o
 .text.USART_SetPrescaler
                0x00000000       0x64 THUMB Debug/stm32f10x_usart.o
 .text.USART_SmartCardCmd
                0x00000000       0x70 THUMB Debug/stm32f10x_usart.o
 .text.USART_SmartCardNACKCmd
                0x00000000       0x70 THUMB Debug/stm32f10x_usart.o
 .text.USART_HalfDuplexCmd
                0x00000000       0x88 THUMB Debug/stm32f10x_usart.o
 .text.USART_OverSampling8Cmd
                0x00000000       0x88 THUMB Debug/stm32f10x_usart.o
 .text.USART_OneBitMethodCmd
                0x00000000       0x88 THUMB Debug/stm32f10x_usart.o
 .text.USART_IrDAConfig
                0x00000000       0x84 THUMB Debug/stm32f10x_usart.o
 .text.USART_IrDACmd
                0x00000000       0x88 THUMB Debug/stm32f10x_usart.o
 .text.USART_GetFlagStatus
                0x00000000       0xd4 THUMB Debug/stm32f10x_usart.o
 .text.USART_ClearFlag
                0x00000000       0xb0 THUMB Debug/stm32f10x_usart.o
 .text.USART_GetITStatus
                0x00000000      0x138 THUMB Debug/stm32f10x_usart.o
 .text.USART_ClearITPendingBit
                0x00000000       0xd0 THUMB Debug/stm32f10x_usart.o
 .text          0x00000000        0x0 THUMB Debug/stm32f10x_exti.o
 .data          0x00000000        0x0 THUMB Debug/stm32f10x_exti.o
 .bss           0x00000000        0x0 THUMB Debug/stm32f10x_exti.o
 .text.EXTI_DeInit
                0x00000000       0x20 THUMB Debug/stm32f10x_exti.o
 .text.EXTI_StructInit
                0x00000000       0x14 THUMB Debug/stm32f10x_exti.o
 .text.EXTI_GenerateSWInterrupt
                0x00000000       0x2c THUMB Debug/stm32f10x_exti.o
 .text.EXTI_GetFlagStatus
                0x00000000       0x90 THUMB Debug/stm32f10x_exti.o
 .text.EXTI_ClearFlag
                0x00000000       0x28 THUMB Debug/stm32f10x_exti.o
 .text          0x00000000        0x0 THUMB Debug/stm32f10x_pwr.o
 .data          0x00000000        0x0 THUMB Debug/stm32f10x_pwr.o
 .bss           0x00000000        0x0 THUMB Debug/stm32f10x_pwr.o
 .text.PWR_DeInit
                0x00000000       0x20 THUMB Debug/stm32f10x_pwr.o
 .text.PWR_BackupAccessCmd
                0x00000000       0x24 THUMB Debug/stm32f10x_pwr.o
 .text.PWR_WakeUpPinCmd
                0x00000000       0x24 THUMB Debug/stm32f10x_pwr.o
 .text.PWR_EnterSTOPMode
                0x00000000       0x74 THUMB Debug/stm32f10x_pwr.o
 .text.PWR_EnterSTANDBYMode
                0x00000000       0x2c THUMB Debug/stm32f10x_pwr.o
 .text.PWR_GetFlagStatus
                0x00000000       0x34 THUMB Debug/stm32f10x_pwr.o
 .text.PWR_ClearFlag
                0x00000000       0x30 THUMB Debug/stm32f10x_pwr.o
 .text          0x00000000        0x0 THUMB Debug/stm32f10x_flash.o
 .data          0x00000000        0x0 THUMB Debug/stm32f10x_flash.o
 .bss           0x00000000        0x0 THUMB Debug/stm32f10x_flash.o
 .text.FLASH_SetLatency
                0x00000000       0x2c THUMB Debug/stm32f10x_flash.o
 .text.FLASH_HalfCycleAccessCmd
                0x00000000       0x34 THUMB Debug/stm32f10x_flash.o
 .text.FLASH_PrefetchBufferCmd
                0x00000000       0x34 THUMB Debug/stm32f10x_flash.o
 .text.FLASH_UnlockBank1
                0x00000000       0x20 THUMB Debug/stm32f10x_flash.o
 .text.FLASH_LockBank1
                0x00000000       0x14 THUMB Debug/stm32f10x_flash.o
 .text.FLASH_GetUserOptionByte
                0x00000000       0x10 THUMB Debug/stm32f10x_flash.o
 .text.FLASH_GetWriteProtectionOptionByte
                0x00000000        0xc THUMB Debug/stm32f10x_flash.o
 .text.FLASH_GetReadOutProtectionStatus
                0x00000000       0x10 THUMB Debug/stm32f10x_flash.o
 .text.FLASH_GetPrefetchBufferStatus
                0x00000000       0x10 THUMB Debug/stm32f10x_flash.o
 .text.FLASH_ITConfig
                0x00000000       0x58 THUMB Debug/stm32f10x_flash.o
 .text.FLASH_GetFlagStatus
                0x00000000       0x4c THUMB Debug/stm32f10x_flash.o
 .text.FLASH_GetStatus
                0x00000000       0x44 THUMB Debug/stm32f10x_flash.o
 .text.FLASH_UserOptionByteConfig
                0x00000000       0xb4 THUMB Debug/stm32f10x_flash.o
 .text.FLASH_ReadOutProtection
                0x00000000       0xd0 THUMB Debug/stm32f10x_flash.o
 .text.FLASH_EnableWriteProtection
                0x00000000       0xe4 THUMB Debug/stm32f10x_flash.o
 .text.FLASH_ProgramOptionByteData
                0x00000000       0x80 THUMB Debug/stm32f10x_flash.o
 .text.FLASH_ProgramHalfWord
                0x00000000       0x58 THUMB Debug/stm32f10x_flash.o
 .text.FLASH_EraseOptionBytes
                0x00000000       0xb0 THUMB Debug/stm32f10x_flash.o
 .text.FLASH_EraseAllPages
                0x00000000       0x3c THUMB Debug/stm32f10x_flash.o
 .text.FLASH_WaitForLastBank1Operation
                0x00000000       0x34 THUMB Debug/stm32f10x_flash.o
 .text.FLASH_EraseAllBank1Pages
                0x00000000       0x3c THUMB Debug/stm32f10x_flash.o
 .text          0x00000000        0x0 THUMB Debug/stm32f10x_iwdg.o
 .data          0x00000000        0x0 THUMB Debug/stm32f10x_iwdg.o
 .bss           0x00000000        0x0 THUMB Debug/stm32f10x_iwdg.o
 .text.IWDG_WriteAccessCmd
                0x00000000       0x2c THUMB Debug/stm32f10x_iwdg.o
 .text.IWDG_SetPrescaler
                0x00000000       0x24 THUMB Debug/stm32f10x_iwdg.o
 .text.IWDG_SetReload
                0x00000000       0x28 THUMB Debug/stm32f10x_iwdg.o
 .text.IWDG_ReloadCounter
                0x00000000       0x10 THUMB Debug/stm32f10x_iwdg.o
 .text.IWDG_Enable
                0x00000000       0x10 THUMB Debug/stm32f10x_iwdg.o
 .text.IWDG_GetFlagStatus
                0x00000000       0x34 THUMB Debug/stm32f10x_iwdg.o
 .rodata.str1.4
                0x00000000       0x78 THUMB Debug/stm32f10x_iwdg.o
 .text          0x00000000        0x0 THUMB Debug/stm32f10x_can.o
 .data          0x00000000        0x0 THUMB Debug/stm32f10x_can.o
 .bss           0x00000000        0x0 THUMB Debug/stm32f10x_can.o
 .text.CheckITStatus
                0x00000000        0xc THUMB Debug/stm32f10x_can.o
 .text.CAN_SlaveStartBank
                0x00000000       0x5c THUMB Debug/stm32f10x_can.o
 .text.CAN_DBGFreeze
                0x00000000       0x58 THUMB Debug/stm32f10x_can.o
 .text.CAN_TTComModeCmd
                0x00000000       0xa0 THUMB Debug/stm32f10x_can.o
 .text.CAN_Transmit
                0x00000000      0x188 THUMB Debug/stm32f10x_can.o
 .text.CAN_TransmitStatus
                0x00000000       0xd0 THUMB Debug/stm32f10x_can.o
 .text.CAN_CancelTransmit
                0x00000000       0x6c THUMB Debug/stm32f10x_can.o
 .text.CAN_FIFORelease
                0x00000000       0x58 THUMB Debug/stm32f10x_can.o
 .text.CAN_OperatingModeRequest
                0x00000000       0xf0 THUMB Debug/stm32f10x_can.o
 .text.CAN_Sleep
                0x00000000       0x48 THUMB Debug/stm32f10x_can.o
 .text.CAN_WakeUp
                0x00000000       0x5c THUMB Debug/stm32f10x_can.o
 .text.CAN_GetLastErrorCode
                0x00000000       0x34 THUMB Debug/stm32f10x_can.o
 .text.CAN_GetReceiveErrorCounter
                0x00000000       0x34 THUMB Debug/stm32f10x_can.o
 .text.CAN_GetLSBTransmitErrorCounter
                0x00000000       0x34 THUMB Debug/stm32f10x_can.o
 .text.CAN_ITConfig
                0x00000000       0xb0 THUMB Debug/stm32f10x_can.o
 .text.CAN_GetFlagStatus
                0x00000000      0x170 THUMB Debug/stm32f10x_can.o
 .text.CAN_ClearFlag
                0x00000000       0xfc THUMB Debug/stm32f10x_can.o
 .text.CAN_GetITStatus
                0x00000000      0x198 THUMB Debug/stm32f10x_can.o
 .text.CAN_ClearITPendingBit
                0x00000000      0x138 THUMB Debug/stm32f10x_can.o
 .text          0x00000000        0x0 THUMB Debug/stm32f10x_i2c.o
 .data          0x00000000        0x0 THUMB Debug/stm32f10x_i2c.o
 .bss           0x00000000        0x0 THUMB Debug/stm32f10x_i2c.o
 .text.I2C_DeInit
                0x00000000       0x64 THUMB Debug/stm32f10x_i2c.o
 .text.I2C_Init
                0x00000000      0x1d8 THUMB Debug/stm32f10x_i2c.o
 .text.I2C_StructInit
                0x00000000       0x20 THUMB Debug/stm32f10x_i2c.o
 .text.I2C_Cmd  0x00000000       0x64 THUMB Debug/stm32f10x_i2c.o
 .text.I2C_DMACmd
                0x00000000       0x64 THUMB Debug/stm32f10x_i2c.o
 .text.I2C_DMALastTransferCmd
                0x00000000       0x64 THUMB Debug/stm32f10x_i2c.o
 .text.I2C_GenerateSTART
                0x00000000       0x64 THUMB Debug/stm32f10x_i2c.o
 .text.I2C_GenerateSTOP
                0x00000000       0x64 THUMB Debug/stm32f10x_i2c.o
 .text.I2C_AcknowledgeConfig
                0x00000000       0x64 THUMB Debug/stm32f10x_i2c.o
 .text.I2C_OwnAddress2Config
                0x00000000       0x48 THUMB Debug/stm32f10x_i2c.o
 .text.I2C_DualAddressCmd
                0x00000000       0x64 THUMB Debug/stm32f10x_i2c.o
 .text.I2C_GeneralCallCmd
                0x00000000       0x64 THUMB Debug/stm32f10x_i2c.o
 .text.I2C_ITConfig
                0x00000000       0x78 THUMB Debug/stm32f10x_i2c.o
 .text.I2C_SendData
                0x00000000       0x34 THUMB Debug/stm32f10x_i2c.o
 .text.I2C_ReceiveData
                0x00000000       0x34 THUMB Debug/stm32f10x_i2c.o
 .text.I2C_Send7bitAddress
                0x00000000       0x54 THUMB Debug/stm32f10x_i2c.o
 .text.I2C_ReadRegister
                0x00000000       0x7c THUMB Debug/stm32f10x_i2c.o
 .text.I2C_SoftwareResetCmd
                0x00000000       0x64 THUMB Debug/stm32f10x_i2c.o
 .text.I2C_NACKPositionConfig
                0x00000000       0x6c THUMB Debug/stm32f10x_i2c.o
 .text.I2C_SMBusAlertConfig
                0x00000000       0x6c THUMB Debug/stm32f10x_i2c.o
 .text.I2C_TransmitPEC
                0x00000000       0x64 THUMB Debug/stm32f10x_i2c.o
 .text.I2C_PECPositionConfig
                0x00000000       0x6c THUMB Debug/stm32f10x_i2c.o
 .text.I2C_CalculatePEC
                0x00000000       0x64 THUMB Debug/stm32f10x_i2c.o
 .text.I2C_GetPEC
                0x00000000       0x34 THUMB Debug/stm32f10x_i2c.o
 .text.I2C_ARPCmd
                0x00000000       0x64 THUMB Debug/stm32f10x_i2c.o
 .text.I2C_StretchClockCmd
                0x00000000       0x64 THUMB Debug/stm32f10x_i2c.o
 .text.I2C_FastModeDutyCycleConfig
                0x00000000       0x6c THUMB Debug/stm32f10x_i2c.o
 .text.I2C_CheckEvent
                0x00000000      0x128 THUMB Debug/stm32f10x_i2c.o
 .text.I2C_GetLastEvent
                0x00000000       0x3c THUMB Debug/stm32f10x_i2c.o
 .text.I2C_GetFlagStatus
                0x00000000      0x148 THUMB Debug/stm32f10x_i2c.o
 .text.I2C_ClearFlag
                0x00000000       0x54 THUMB Debug/stm32f10x_i2c.o
 .text.I2C_GetITStatus
                0x00000000      0x104 THUMB Debug/stm32f10x_i2c.o
 .text.I2C_ClearITPendingBit
                0x00000000       0x54 THUMB Debug/stm32f10x_i2c.o
 .rodata.str1.4
                0x00000000       0x78 THUMB Debug/stm32f10x_i2c.o
 .text.libc     0x00000000        0x0 C:/Program Files (x86)/Rowley Associates Limited/CrossWorks for ARM 2.3/lib/libm_v7m_t_le.a(libm_asm.o)
 .data.libc     0x00000000        0x0 C:/Program Files (x86)/Rowley Associates Limited/CrossWorks for ARM 2.3/lib/libm_v7m_t_le.a(libm_asm.o)
 .bss.libc      0x00000000        0x0 C:/Program Files (x86)/Rowley Associates Limited/CrossWorks for ARM 2.3/lib/libm_v7m_t_le.a(libm_asm.o)
 .text.libc.__uint32_to_float64
                0x00000000       0x24 C:/Program Files (x86)/Rowley Associates Limited/CrossWorks for ARM 2.3/lib/libm_v7m_t_le.a(libm_asm.o)
 .text.libc.__int64_to_float32
                0x00000000       0x94 C:/Program Files (x86)/Rowley Associates Limited/CrossWorks for ARM 2.3/lib/libm_v7m_t_le.a(libm_asm.o)
 .text.libc.__uint64_to_float32
                0x00000000       0x10 C:/Program Files (x86)/Rowley Associates Limited/CrossWorks for ARM 2.3/lib/libm_v7m_t_le.a(libm_asm.o)
 .text.libc.__float32_to_int64
                0x00000000       0x7c C:/Program Files (x86)/Rowley Associates Limited/CrossWorks for ARM 2.3/lib/libm_v7m_t_le.a(libm_asm.o)
 .text.libc.__float32_to_uint64
                0x00000000       0x48 C:/Program Files (x86)/Rowley Associates Limited/CrossWorks for ARM 2.3/lib/libm_v7m_t_le.a(libm_asm.o)
 .text.libc.__float64_to_int32
                0x00000000       0x50 C:/Program Files (x86)/Rowley Associates Limited/CrossWorks for ARM 2.3/lib/libm_v7m_t_le.a(libm_asm.o)
 .text.libc.__float64_to_int64
                0x00000000       0x80 C:/Program Files (x86)/Rowley Associates Limited/CrossWorks for ARM 2.3/lib/libm_v7m_t_le.a(libm_asm.o)
 .text.libc.__float64_to_uint32
                0x00000000       0x2c C:/Program Files (x86)/Rowley Associates Limited/CrossWorks for ARM 2.3/lib/libm_v7m_t_le.a(libm_asm.o)
 .text.libc.__aeabi_fcmpeq
                0x00000000       0x1c C:/Program Files (x86)/Rowley Associates Limited/CrossWorks for ARM 2.3/lib/libm_v7m_t_le.a(libm_asm.o)
 .text.libc.__aeabi_fcmplt
                0x00000000       0x30 C:/Program Files (x86)/Rowley Associates Limited/CrossWorks for ARM 2.3/lib/libm_v7m_t_le.a(libm_asm.o)
 .text.libc.__aeabi_fcmple
                0x00000000       0x34 C:/Program Files (x86)/Rowley Associates Limited/CrossWorks for ARM 2.3/lib/libm_v7m_t_le.a(libm_asm.o)
 .text.libc.__aeabi_fcmpgt
                0x00000000       0x30 C:/Program Files (x86)/Rowley Associates Limited/CrossWorks for ARM 2.3/lib/libm_v7m_t_le.a(libm_asm.o)
 .text.libc.__aeabi_fcmpge
                0x00000000       0x34 C:/Program Files (x86)/Rowley Associates Limited/CrossWorks for ARM 2.3/lib/libm_v7m_t_le.a(libm_asm.o)
 .text.libc.__float32_cmpun
                0x00000000       0x20 C:/Program Files (x86)/Rowley Associates Limited/CrossWorks for ARM 2.3/lib/libm_v7m_t_le.a(libm_asm.o)
 .text.libc.__float64_cmpeq
                0x00000000       0x34 C:/Program Files (x86)/Rowley Associates Limited/CrossWorks for ARM 2.3/lib/libm_v7m_t_le.a(libm_asm.o)
 .text.libc.__float64_cmple
                0x00000000       0x38 C:/Program Files (x86)/Rowley Associates Limited/CrossWorks for ARM 2.3/lib/libm_v7m_t_le.a(libm_asm.o)
 .text.libc.__float64_cmpge
                0x00000000       0x38 C:/Program Files (x86)/Rowley Associates Limited/CrossWorks for ARM 2.3/lib/libm_v7m_t_le.a(libm_asm.o)
 .text.libc.__float64_cmplt
                0x00000000       0x38 C:/Program Files (x86)/Rowley Associates Limited/CrossWorks for ARM 2.3/lib/libm_v7m_t_le.a(libm_asm.o)
 .text.libc.__float64_cmpgt
                0x00000000       0x38 C:/Program Files (x86)/Rowley Associates Limited/CrossWorks for ARM 2.3/lib/libm_v7m_t_le.a(libm_asm.o)
 .text.libc.__float64_cmpun
                0x00000000       0x20 C:/Program Files (x86)/Rowley Associates Limited/CrossWorks for ARM 2.3/lib/libm_v7m_t_le.a(libm_asm.o)
 .text.libc.__float32_signbit
                0x00000000        0x8 C:/Program Files (x86)/Rowley Associates Limited/CrossWorks for ARM 2.3/lib/libm_v7m_t_le.a(libm_asm.o)
 .text.libc.__float64_signbit
                0x00000000        0x8 C:/Program Files (x86)/Rowley Associates Limited/CrossWorks for ARM 2.3/lib/libm_v7m_t_le.a(libm_asm.o)
 .text.libc.__float32_isfinite
                0x00000000        0xc C:/Program Files (x86)/Rowley Associates Limited/CrossWorks for ARM 2.3/lib/libm_v7m_t_le.a(libm_asm.o)
 .text.libc.__float64_isfinite
                0x00000000       0x10 C:/Program Files (x86)/Rowley Associates Limited/CrossWorks for ARM 2.3/lib/libm_v7m_t_le.a(libm_asm.o)
 .text.libc.__float32_isnormal
                0x00000000       0x18 C:/Program Files (x86)/Rowley Associates Limited/CrossWorks for ARM 2.3/lib/libm_v7m_t_le.a(libm_asm.o)
 .text.libc.__float64_isnormal
                0x00000000       0x18 C:/Program Files (x86)/Rowley Associates Limited/CrossWorks for ARM 2.3/lib/libm_v7m_t_le.a(libm_asm.o)
 .text.libc.__float32_classify
                0x00000000       0x24 C:/Program Files (x86)/Rowley Associates Limited/CrossWorks for ARM 2.3/lib/libm_v7m_t_le.a(libm_asm.o)
 .text.libc.__float64_classify
                0x00000000       0x28 C:/Program Files (x86)/Rowley Associates Limited/CrossWorks for ARM 2.3/lib/libm_v7m_t_le.a(libm_asm.o)
 .rodata.libc.__float32_nan
                0x00000000        0x4 C:/Program Files (x86)/Rowley Associates Limited/CrossWorks for ARM 2.3/lib/libm_v7m_t_le.a(libm_asm.o)
 .rodata.libc.__float64_nan
                0x00000000        0x8 C:/Program Files (x86)/Rowley Associates Limited/CrossWorks for ARM 2.3/lib/libm_v7m_t_le.a(libm_asm.o)
 .text          0x00000000        0x0 C:/Program Files (x86)/Rowley Associates Limited/CrossWorks for ARM 2.3/lib/libm_v7m_t_le.a(libm2.o)
 .data          0x00000000        0x0 C:/Program Files (x86)/Rowley Associates Limited/CrossWorks for ARM 2.3/lib/libm_v7m_t_le.a(libm2.o)
 .bss           0x00000000        0x0 C:/Program Files (x86)/Rowley Associates Limited/CrossWorks for ARM 2.3/lib/libm_v7m_t_le.a(libm2.o)
 .text.libc     0x00000000        0x0 C:/Program Files (x86)/Rowley Associates Limited/CrossWorks for ARM 2.3/lib/libm_v7m_t_le.a(libm2.o)
 .text.libc.logf.part.4
                0x00000000      0x14c C:/Program Files (x86)/Rowley Associates Limited/CrossWorks for ARM 2.3/lib/libm_v7m_t_le.a(libm2.o)
 .text.libc.exp.part.2
                0x00000000      0x19c C:/Program Files (x86)/Rowley Associates Limited/CrossWorks for ARM 2.3/lib/libm_v7m_t_le.a(libm2.o)
 .text.libc.sqrt.part.5
                0x00000000      0x208 C:/Program Files (x86)/Rowley Associates Limited/CrossWorks for ARM 2.3/lib/libm_v7m_t_le.a(libm2.o)
 .text.libc.log.part.3
                0x00000000      0x2b4 C:/Program Files (x86)/Rowley Associates Limited/CrossWorks for ARM 2.3/lib/libm_v7m_t_le.a(libm2.o)
 .text.libc.__asinacos
                0x00000000      0x2d0 C:/Program Files (x86)/Rowley Associates Limited/CrossWorks for ARM 2.3/lib/libm_v7m_t_le.a(libm2.o)
 .text.libc.__asinacosf
                0x00000000      0x218 C:/Program Files (x86)/Rowley Associates Limited/CrossWorks for ARM 2.3/lib/libm_v7m_t_le.a(libm2.o)
 .text.libc.__poly1_eval
                0x00000000       0x94 C:/Program Files (x86)/Rowley Associates Limited/CrossWorks for ARM 2.3/lib/libm_v7m_t_le.a(libm2.o)
 .text.libc.__poly1_evalf
                0x00000000       0x88 C:/Program Files (x86)/Rowley Associates Limited/CrossWorks for ARM 2.3/lib/libm_v7m_t_le.a(libm2.o)
 .text.libc.__poly_eval
                0x00000000       0x8c C:/Program Files (x86)/Rowley Associates Limited/CrossWorks for ARM 2.3/lib/libm_v7m_t_le.a(libm2.o)
 .text.libc.__poly_evalf
                0x00000000       0x7c C:/Program Files (x86)/Rowley Associates Limited/CrossWorks for ARM 2.3/lib/libm_v7m_t_le.a(libm2.o)
 .text.libc.__sincos
                0x00000000      0x208 C:/Program Files (x86)/Rowley Associates Limited/CrossWorks for ARM 2.3/lib/libm_v7m_t_le.a(libm2.o)
 .text.libc.acos
                0x00000000        0x8 C:/Program Files (x86)/Rowley Associates Limited/CrossWorks for ARM 2.3/lib/libm_v7m_t_le.a(libm2.o)
 .text.libc.acosf
                0x00000000        0x8 C:/Program Files (x86)/Rowley Associates Limited/CrossWorks for ARM 2.3/lib/libm_v7m_t_le.a(libm2.o)
 .text.libc.acosh
                0x00000000      0x230 C:/Program Files (x86)/Rowley Associates Limited/CrossWorks for ARM 2.3/lib/libm_v7m_t_le.a(libm2.o)
 .text.libc.acoshf
                0x00000000      0x1a8 C:/Program Files (x86)/Rowley Associates Limited/CrossWorks for ARM 2.3/lib/libm_v7m_t_le.a(libm2.o)
 .text.libc.asin
                0x00000000        0x8 C:/Program Files (x86)/Rowley Associates Limited/CrossWorks for ARM 2.3/lib/libm_v7m_t_le.a(libm2.o)
 .text.libc.asinf
                0x00000000        0x8 C:/Program Files (x86)/Rowley Associates Limited/CrossWorks for ARM 2.3/lib/libm_v7m_t_le.a(libm2.o)
 .text.libc.asinh
                0x00000000      0x21c C:/Program Files (x86)/Rowley Associates Limited/CrossWorks for ARM 2.3/lib/libm_v7m_t_le.a(libm2.o)
 .text.libc.asinhf
                0x00000000      0x190 C:/Program Files (x86)/Rowley Associates Limited/CrossWorks for ARM 2.3/lib/libm_v7m_t_le.a(libm2.o)
 .text.libc.atan
                0x00000000      0x220 C:/Program Files (x86)/Rowley Associates Limited/CrossWorks for ARM 2.3/lib/libm_v7m_t_le.a(libm2.o)
 .text.libc.atan2
                0x00000000      0x128 C:/Program Files (x86)/Rowley Associates Limited/CrossWorks for ARM 2.3/lib/libm_v7m_t_le.a(libm2.o)
 .text.libc.atanf
                0x00000000      0x188 C:/Program Files (x86)/Rowley Associates Limited/CrossWorks for ARM 2.3/lib/libm_v7m_t_le.a(libm2.o)
 .text.libc.atan2f
                0x00000000       0xd0 C:/Program Files (x86)/Rowley Associates Limited/CrossWorks for ARM 2.3/lib/libm_v7m_t_le.a(libm2.o)
 .text.libc.atanh
                0x00000000      0x170 C:/Program Files (x86)/Rowley Associates Limited/CrossWorks for ARM 2.3/lib/libm_v7m_t_le.a(libm2.o)
 .text.libc.atanhf
                0x00000000       0xe8 C:/Program Files (x86)/Rowley Associates Limited/CrossWorks for ARM 2.3/lib/libm_v7m_t_le.a(libm2.o)
 .text.libc.ceil
                0x00000000       0xb0 C:/Program Files (x86)/Rowley Associates Limited/CrossWorks for ARM 2.3/lib/libm_v7m_t_le.a(libm2.o)
 .text.libc.cos
                0x00000000      0x1a0 C:/Program Files (x86)/Rowley Associates Limited/CrossWorks for ARM 2.3/lib/libm_v7m_t_le.a(libm2.o)
 .text.libc.cosf
                0x00000000       0x50 C:/Program Files (x86)/Rowley Associates Limited/CrossWorks for ARM 2.3/lib/libm_v7m_t_le.a(libm2.o)
 .text.libc.cosh
                0x00000000      0x1cc C:/Program Files (x86)/Rowley Associates Limited/CrossWorks for ARM 2.3/lib/libm_v7m_t_le.a(libm2.o)
 .text.libc.coshf
                0x00000000      0x308 C:/Program Files (x86)/Rowley Associates Limited/CrossWorks for ARM 2.3/lib/libm_v7m_t_le.a(libm2.o)
 .text.libc.exp
                0x00000000       0x80 C:/Program Files (x86)/Rowley Associates Limited/CrossWorks for ARM 2.3/lib/libm_v7m_t_le.a(libm2.o)
 .text.libc.expf
                0x00000000      0x140 C:/Program Files (x86)/Rowley Associates Limited/CrossWorks for ARM 2.3/lib/libm_v7m_t_le.a(libm2.o)
 .text.libc.fmax
                0x00000000       0x1c C:/Program Files (x86)/Rowley Associates Limited/CrossWorks for ARM 2.3/lib/libm_v7m_t_le.a(libm2.o)
 .text.libc.fmaxf
                0x00000000       0x14 C:/Program Files (x86)/Rowley Associates Limited/CrossWorks for ARM 2.3/lib/libm_v7m_t_le.a(libm2.o)
 .text.libc.fmin
                0x00000000       0x1c C:/Program Files (x86)/Rowley Associates Limited/CrossWorks for ARM 2.3/lib/libm_v7m_t_le.a(libm2.o)
 .text.libc.fminf
                0x00000000       0x14 C:/Program Files (x86)/Rowley Associates Limited/CrossWorks for ARM 2.3/lib/libm_v7m_t_le.a(libm2.o)
 .text.libc.hypot
                0x00000000      0x21c C:/Program Files (x86)/Rowley Associates Limited/CrossWorks for ARM 2.3/lib/libm_v7m_t_le.a(libm2.o)
 .text.libc.hypotf
                0x00000000      0x198 C:/Program Files (x86)/Rowley Associates Limited/CrossWorks for ARM 2.3/lib/libm_v7m_t_le.a(libm2.o)
 .text.libc.log10
                0x00000000       0x80 C:/Program Files (x86)/Rowley Associates Limited/CrossWorks for ARM 2.3/lib/libm_v7m_t_le.a(libm2.o)
 .text.libc.log10f
                0x00000000       0x6c C:/Program Files (x86)/Rowley Associates Limited/CrossWorks for ARM 2.3/lib/libm_v7m_t_le.a(libm2.o)
 .text.libc.log
                0x00000000       0x58 C:/Program Files (x86)/Rowley Associates Limited/CrossWorks for ARM 2.3/lib/libm_v7m_t_le.a(libm2.o)
 .text.libc.logf
                0x00000000       0x4c C:/Program Files (x86)/Rowley Associates Limited/CrossWorks for ARM 2.3/lib/libm_v7m_t_le.a(libm2.o)
 .text.libc.modf
                0x00000000       0xac C:/Program Files (x86)/Rowley Associates Limited/CrossWorks for ARM 2.3/lib/libm_v7m_t_le.a(libm2.o)
 .text.libc.modff
                0x00000000       0x50 C:/Program Files (x86)/Rowley Associates Limited/CrossWorks for ARM 2.3/lib/libm_v7m_t_le.a(libm2.o)
 .text.libc.pow
                0x00000000      0x1d0 C:/Program Files (x86)/Rowley Associates Limited/CrossWorks for ARM 2.3/lib/libm_v7m_t_le.a(libm2.o)
 .text.libc.powf
                0x00000000      0x240 C:/Program Files (x86)/Rowley Associates Limited/CrossWorks for ARM 2.3/lib/libm_v7m_t_le.a(libm2.o)
 .text.libc.scalbn
                0x00000000       0x64 C:/Program Files (x86)/Rowley Associates Limited/CrossWorks for ARM 2.3/lib/libm_v7m_t_le.a(libm2.o)
 .text.libc.scalbnf
                0x00000000        0x4 C:/Program Files (x86)/Rowley Associates Limited/CrossWorks for ARM 2.3/lib/libm_v7m_t_le.a(libm2.o)
 .text.libc.sin
                0x00000000      0x18c C:/Program Files (x86)/Rowley Associates Limited/CrossWorks for ARM 2.3/lib/libm_v7m_t_le.a(libm2.o)
 .text.libc.sinh
                0x00000000      0x254 C:/Program Files (x86)/Rowley Associates Limited/CrossWorks for ARM 2.3/lib/libm_v7m_t_le.a(libm2.o)
 .text.libc.sinhf
                0x00000000      0x1e8 C:/Program Files (x86)/Rowley Associates Limited/CrossWorks for ARM 2.3/lib/libm_v7m_t_le.a(libm2.o)
 .text.libc.tan
                0x00000000      0x248 C:/Program Files (x86)/Rowley Associates Limited/CrossWorks for ARM 2.3/lib/libm_v7m_t_le.a(libm2.o)
 .text.libc.tanf
                0x00000000      0x174 C:/Program Files (x86)/Rowley Associates Limited/CrossWorks for ARM 2.3/lib/libm_v7m_t_le.a(libm2.o)
 .text.libc.tanh
                0x00000000      0x244 C:/Program Files (x86)/Rowley Associates Limited/CrossWorks for ARM 2.3/lib/libm_v7m_t_le.a(libm2.o)
 .text.libc.tanhf
                0x00000000      0x28c C:/Program Files (x86)/Rowley Associates Limited/CrossWorks for ARM 2.3/lib/libm_v7m_t_le.a(libm2.o)
 .text.libc.sqrt
                0x00000000       0x48 C:/Program Files (x86)/Rowley Associates Limited/CrossWorks for ARM 2.3/lib/libm_v7m_t_le.a(libm2.o)
 .text.libc.cbrtf
                0x00000000      0x108 C:/Program Files (x86)/Rowley Associates Limited/CrossWorks for ARM 2.3/lib/libm_v7m_t_le.a(libm2.o)
 .text.libc.cbrt
                0x00000000      0x2a0 C:/Program Files (x86)/Rowley Associates Limited/CrossWorks for ARM 2.3/lib/libm_v7m_t_le.a(libm2.o)
 .text.libc.floor
                0x00000000       0xa8 C:/Program Files (x86)/Rowley Associates Limited/CrossWorks for ARM 2.3/lib/libm_v7m_t_le.a(libm2.o)
 .text.libc.fmodf
                0x00000000       0xec C:/Program Files (x86)/Rowley Associates Limited/CrossWorks for ARM 2.3/lib/libm_v7m_t_le.a(libm2.o)
 .text.libc.fmod
                0x00000000      0x178 C:/Program Files (x86)/Rowley Associates Limited/CrossWorks for ARM 2.3/lib/libm_v7m_t_le.a(libm2.o)
 .rodata.libc.__asinacosf_a
                0x00000000        0x8 C:/Program Files (x86)/Rowley Associates Limited/CrossWorks for ARM 2.3/lib/libm_v7m_t_le.a(libm2.o)
 .rodata.libc.__asinacosf_b
                0x00000000        0x8 C:/Program Files (x86)/Rowley Associates Limited/CrossWorks for ARM 2.3/lib/libm_v7m_t_le.a(libm2.o)
 .rodata.libc.atanf_a
                0x00000000       0x10 C:/Program Files (x86)/Rowley Associates Limited/CrossWorks for ARM 2.3/lib/libm_v7m_t_le.a(libm2.o)
 .rodata.libc.__asinacos_a
                0x00000000       0x10 C:/Program Files (x86)/Rowley Associates Limited/CrossWorks for ARM 2.3/lib/libm_v7m_t_le.a(libm2.o)
 .rodata.libc.__asinacos_b
                0x00000000       0x10 C:/Program Files (x86)/Rowley Associates Limited/CrossWorks for ARM 2.3/lib/libm_v7m_t_le.a(libm2.o)
 .rodata.libc.atan_a
                0x00000000       0x20 C:/Program Files (x86)/Rowley Associates Limited/CrossWorks for ARM 2.3/lib/libm_v7m_t_le.a(libm2.o)
 .text.libc     0x00000000        0x0 C:/Program Files (x86)/Rowley Associates Limited/CrossWorks for ARM 2.3/lib/libm_v7m_t_le.a(libm2_asm.o)
 .data.libc     0x00000000        0x0 C:/Program Files (x86)/Rowley Associates Limited/CrossWorks for ARM 2.3/lib/libm_v7m_t_le.a(libm2_asm.o)
 .bss.libc      0x00000000        0x0 C:/Program Files (x86)/Rowley Associates Limited/CrossWorks for ARM 2.3/lib/libm_v7m_t_le.a(libm2_asm.o)
 .text.libc.fabs
                0x00000000        0x8 C:/Program Files (x86)/Rowley Associates Limited/CrossWorks for ARM 2.3/lib/libm_v7m_t_le.a(libm2_asm.o)
 .text.libc.ceilf
                0x00000000       0x60 C:/Program Files (x86)/Rowley Associates Limited/CrossWorks for ARM 2.3/lib/libm_v7m_t_le.a(libm2_asm.o)
 .text.libc.floorf
                0x00000000       0x5c C:/Program Files (x86)/Rowley Associates Limited/CrossWorks for ARM 2.3/lib/libm_v7m_t_le.a(libm2_asm.o)
 .text          0x00000000        0x0 C:/Program Files (x86)/Rowley Associates Limited/CrossWorks for ARM 2.3/lib/libc_v7m_t_le.a(libc2.o)
 .data          0x00000000        0x0 C:/Program Files (x86)/Rowley Associates Limited/CrossWorks for ARM 2.3/lib/libc_v7m_t_le.a(libc2.o)
 .bss           0x00000000        0x0 C:/Program Files (x86)/Rowley Associates Limited/CrossWorks for ARM 2.3/lib/libc_v7m_t_le.a(libc2.o)
 .text.libc     0x00000000        0x0 C:/Program Files (x86)/Rowley Associates Limited/CrossWorks for ARM 2.3/lib/libc_v7m_t_le.a(libc2.o)
 .text.libc.twodigit
                0x00000000       0x28 C:/Program Files (x86)/Rowley Associates Limited/CrossWorks for ARM 2.3/lib/libc_v7m_t_le.a(libc2.o)
 .text.libc.month_name
                0x00000000       0x14 C:/Program Files (x86)/Rowley Associates Limited/CrossWorks for ARM 2.3/lib/libc_v7m_t_le.a(libc2.o)
 .text.libc.checked_day_name
                0x00000000       0x14 C:/Program Files (x86)/Rowley Associates Limited/CrossWorks for ARM 2.3/lib/libc_v7m_t_le.a(libc2.o)
 .text.libc.put_ch
                0x00000000       0x24 C:/Program Files (x86)/Rowley Associates Limited/CrossWorks for ARM 2.3/lib/libc_v7m_t_le.a(libc2.o)
 .text.libc.put_str
                0x00000000       0x1c C:/Program Files (x86)/Rowley Associates Limited/CrossWorks for ARM 2.3/lib/libc_v7m_t_le.a(libc2.o)
 .text.libc.put_nstr
                0x00000000       0x24 C:/Program Files (x86)/Rowley Associates Limited/CrossWorks for ARM 2.3/lib/libc_v7m_t_le.a(libc2.o)
 .text.libc.put_digit
                0x00000000       0x28 C:/Program Files (x86)/Rowley Associates Limited/CrossWorks for ARM 2.3/lib/libc_v7m_t_le.a(libc2.o)
 .text.libc.put_twodigit
                0x00000000       0x34 C:/Program Files (x86)/Rowley Associates Limited/CrossWorks for ARM 2.3/lib/libc_v7m_t_le.a(libc2.o)
 .text.libc.put_twodigits_leading_blank
                0x00000000       0x24 C:/Program Files (x86)/Rowley Associates Limited/CrossWorks for ARM 2.3/lib/libc_v7m_t_le.a(libc2.o)
 .text.libc.put_twodigit2
                0x00000000       0x20 C:/Program Files (x86)/Rowley Associates Limited/CrossWorks for ARM 2.3/lib/libc_v7m_t_le.a(libc2.o)
 .text.libc.put_formatted
                0x00000000      0x3ec C:/Program Files (x86)/Rowley Associates Limited/CrossWorks for ARM 2.3/lib/libc_v7m_t_le.a(libc2.o)
 .text.libc.__stdin_ungetc
                0x00000000        0xc C:/Program Files (x86)/Rowley Associates Limited/CrossWorks for ARM 2.3/lib/libc_v7m_t_le.a(libc2.o)
 .text.libc.__xlltoa
                0x00000000       0x80 C:/Program Files (x86)/Rowley Associates Limited/CrossWorks for ARM 2.3/lib/libc_v7m_t_le.a(libc2.o)
 .text.libc.__xltoa
                0x00000000       0x58 C:/Program Files (x86)/Rowley Associates Limited/CrossWorks for ARM 2.3/lib/libc_v7m_t_le.a(libc2.o)
 .text.libc.__xtoa
                0x00000000       0x58 C:/Program Files (x86)/Rowley Associates Limited/CrossWorks for ARM 2.3/lib/libc_v7m_t_le.a(libc2.o)
 .text.libc.asctime_r
                0x00000000       0xfc C:/Program Files (x86)/Rowley Associates Limited/CrossWorks for ARM 2.3/lib/libc_v7m_t_le.a(libc2.o)
 .text.libc.asctime
                0x00000000       0x14 C:/Program Files (x86)/Rowley Associates Limited/CrossWorks for ARM 2.3/lib/libc_v7m_t_le.a(libc2.o)
 .text.libc.atexit
                0x00000000       0x34 C:/Program Files (x86)/Rowley Associates Limited/CrossWorks for ARM 2.3/lib/libc_v7m_t_le.a(libc2.o)
 .text.libc._execute_at_exit_fns
                0x00000000       0x38 C:/Program Files (x86)/Rowley Associates Limited/CrossWorks for ARM 2.3/lib/libc_v7m_t_le.a(libc2.o)
 .text.libc.ctl_is_exact_power_of_two
                0x00000000       0x10 C:/Program Files (x86)/Rowley Associates Limited/CrossWorks for ARM 2.3/lib/libc_v7m_t_le.a(libc2.o)
 .text.libc.ctl_round_power_of_two
                0x00000000       0x20 C:/Program Files (x86)/Rowley Associates Limited/CrossWorks for ARM 2.3/lib/libc_v7m_t_le.a(libc2.o)
 .text.libc.ctl_count_leading_zeroes
                0x00000000       0x40 C:/Program Files (x86)/Rowley Associates Limited/CrossWorks for ARM 2.3/lib/libc_v7m_t_le.a(libc2.o)
 .text.libc.ctl_ilogb
                0x00000000       0x20 C:/Program Files (x86)/Rowley Associates Limited/CrossWorks for ARM 2.3/lib/libc_v7m_t_le.a(libc2.o)
 .text.libc.buddy_alloc
                0x00000000      0x108 C:/Program Files (x86)/Rowley Associates Limited/CrossWorks for ARM 2.3/lib/libc_v7m_t_le.a(libc2.o)
 .text.libc.buddy_free
                0x00000000       0xf0 C:/Program Files (x86)/Rowley Associates Limited/CrossWorks for ARM 2.3/lib/libc_v7m_t_le.a(libc2.o)
 .text.libc.buddy_heap_init
                0x00000000       0xc0 C:/Program Files (x86)/Rowley Associates Limited/CrossWorks for ARM 2.3/lib/libc_v7m_t_le.a(libc2.o)
 .text.libc.isalpha
                0x00000000       0x1c C:/Program Files (x86)/Rowley Associates Limited/CrossWorks for ARM 2.3/lib/libc_v7m_t_le.a(libc2.o)
 .text.libc.isxdigit
                0x00000000       0x2c C:/Program Files (x86)/Rowley Associates Limited/CrossWorks for ARM 2.3/lib/libc_v7m_t_le.a(libc2.o)
 .text.libc.__strtoull
                0x00000000      0x140 C:/Program Files (x86)/Rowley Associates Limited/CrossWorks for ARM 2.3/lib/libc_v7m_t_le.a(libc2.o)
 .text.libc.__strtoul
                0x00000000       0xec C:/Program Files (x86)/Rowley Associates Limited/CrossWorks for ARM 2.3/lib/libc_v7m_t_le.a(libc2.o)
 .text.libc.ispunct
                0x00000000       0x38 C:/Program Files (x86)/Rowley Associates Limited/CrossWorks for ARM 2.3/lib/libc_v7m_t_le.a(libc2.o)
 .text.libc.isalnum
                0x00000000       0x2c C:/Program Files (x86)/Rowley Associates Limited/CrossWorks for ARM 2.3/lib/libc_v7m_t_le.a(libc2.o)
 .text.libc.isprint
                0x00000000       0x14 C:/Program Files (x86)/Rowley Associates Limited/CrossWorks for ARM 2.3/lib/libc_v7m_t_le.a(libc2.o)
 .text.libc.isgraph
                0x00000000       0x14 C:/Program Files (x86)/Rowley Associates Limited/CrossWorks for ARM 2.3/lib/libc_v7m_t_le.a(libc2.o)
 .text.libc.iscntrl
                0x00000000       0x14 C:/Program Files (x86)/Rowley Associates Limited/CrossWorks for ARM 2.3/lib/libc_v7m_t_le.a(libc2.o)
 .text.libc.toupper
                0x00000000       0x10 C:/Program Files (x86)/Rowley Associates Limited/CrossWorks for ARM 2.3/lib/libc_v7m_t_le.a(libc2.o)
 .text.libc.isblank
                0x00000000       0x14 C:/Program Files (x86)/Rowley Associates Limited/CrossWorks for ARM 2.3/lib/libc_v7m_t_le.a(libc2.o)
 .text.libc.div
                0x00000000       0x20 C:/Program Files (x86)/Rowley Associates Limited/CrossWorks for ARM 2.3/lib/libc_v7m_t_le.a(libc2.o)
 .text.libc.itoa
                0x00000000       0x24 C:/Program Files (x86)/Rowley Associates Limited/CrossWorks for ARM 2.3/lib/libc_v7m_t_le.a(libc2.o)
 .text.libc.labs
                0x00000000        0x8 C:/Program Files (x86)/Rowley Associates Limited/CrossWorks for ARM 2.3/lib/libc_v7m_t_le.a(libc2.o)
 .text.libc.ldiv
                0x00000000       0x20 C:/Program Files (x86)/Rowley Associates Limited/CrossWorks for ARM 2.3/lib/libc_v7m_t_le.a(libc2.o)
 .text.libc.linked_heap_init
                0x00000000       0x64 C:/Program Files (x86)/Rowley Associates Limited/CrossWorks for ARM 2.3/lib/libc_v7m_t_le.a(libc2.o)
 .text.libc.linked_heap_alloc
                0x00000000       0xb4 C:/Program Files (x86)/Rowley Associates Limited/CrossWorks for ARM 2.3/lib/libc_v7m_t_le.a(libc2.o)
 .text.libc.linked_heap_free
                0x00000000       0xd4 C:/Program Files (x86)/Rowley Associates Limited/CrossWorks for ARM 2.3/lib/libc_v7m_t_le.a(libc2.o)
 .text.libc.linked_heap_realloc
                0x00000000       0x28 C:/Program Files (x86)/Rowley Associates Limited/CrossWorks for ARM 2.3/lib/libc_v7m_t_le.a(libc2.o)
 .text.libc.llabs
                0x00000000       0x18 C:/Program Files (x86)/Rowley Associates Limited/CrossWorks for ARM 2.3/lib/libc_v7m_t_le.a(libc2.o)
 .text.libc.lldiv
                0x00000000       0x60 C:/Program Files (x86)/Rowley Associates Limited/CrossWorks for ARM 2.3/lib/libc_v7m_t_le.a(libc2.o)
 .text.libc.lltoa
                0x00000000       0x18 C:/Program Files (x86)/Rowley Associates Limited/CrossWorks for ARM 2.3/lib/libc_v7m_t_le.a(libc2.o)
 .text.libc.localeconv
                0x00000000        0xc C:/Program Files (x86)/Rowley Associates Limited/CrossWorks for ARM 2.3/lib/libc_v7m_t_le.a(libc2.o)
 .text.libc.setlocale
                0x00000000       0x2c C:/Program Files (x86)/Rowley Associates Limited/CrossWorks for ARM 2.3/lib/libc_v7m_t_le.a(libc2.o)
 .text.libc.ltoa
                0x00000000       0x14 C:/Program Files (x86)/Rowley Associates Limited/CrossWorks for ARM 2.3/lib/libc_v7m_t_le.a(libc2.o)
 .text.libc.free
                0x00000000       0xa8 C:/Program Files (x86)/Rowley Associates Limited/CrossWorks for ARM 2.3/lib/libc_v7m_t_le.a(libc2.o)
 .text.libc.realloc
                0x00000000       0x2c C:/Program Files (x86)/Rowley Associates Limited/CrossWorks for ARM 2.3/lib/libc_v7m_t_le.a(libc2.o)
 .text.libc.memccpy
                0x00000000       0x3c C:/Program Files (x86)/Rowley Associates Limited/CrossWorks for ARM 2.3/lib/libc_v7m_t_le.a(libc2.o)
 .text.libc.mempcpy
                0x00000000       0x10 C:/Program Files (x86)/Rowley Associates Limited/CrossWorks for ARM 2.3/lib/libc_v7m_t_le.a(libc2.o)
 .text.libc.memchr
                0x00000000       0x34 C:/Program Files (x86)/Rowley Associates Limited/CrossWorks for ARM 2.3/lib/libc_v7m_t_le.a(libc2.o)
 .text.libc.memmove
                0x00000000       0x34 C:/Program Files (x86)/Rowley Associates Limited/CrossWorks for ARM 2.3/lib/libc_v7m_t_le.a(libc2.o)
 .text.libc.qsort
                0x00000000      0x260 C:/Program Files (x86)/Rowley Associates Limited/CrossWorks for ARM 2.3/lib/libc_v7m_t_le.a(libc2.o)
 .text.libc.rand
                0x00000000       0x28 C:/Program Files (x86)/Rowley Associates Limited/CrossWorks for ARM 2.3/lib/libc_v7m_t_le.a(libc2.o)
 .text.libc.snprintf
                0x00000000       0x2c C:/Program Files (x86)/Rowley Associates Limited/CrossWorks for ARM 2.3/lib/libc_v7m_t_le.a(libc2.o)
 .text.libc.srand
                0x00000000        0xc C:/Program Files (x86)/Rowley Associates Limited/CrossWorks for ARM 2.3/lib/libc_v7m_t_le.a(libc2.o)
 .text.libc.strcasestr
                0x00000000       0x64 C:/Program Files (x86)/Rowley Associates Limited/CrossWorks for ARM 2.3/lib/libc_v7m_t_le.a(libc2.o)
 .text.libc.strcat
                0x00000000       0x2c C:/Program Files (x86)/Rowley Associates Limited/CrossWorks for ARM 2.3/lib/libc_v7m_t_le.a(libc2.o)
 .text.libc.strchr
                0x00000000       0x2c C:/Program Files (x86)/Rowley Associates Limited/CrossWorks for ARM 2.3/lib/libc_v7m_t_le.a(libc2.o)
 .text.libc.strcspn
                0x00000000       0x2c C:/Program Files (x86)/Rowley Associates Limited/CrossWorks for ARM 2.3/lib/libc_v7m_t_le.a(libc2.o)
 .text.libc.strdup
                0x00000000       0x20 C:/Program Files (x86)/Rowley Associates Limited/CrossWorks for ARM 2.3/lib/libc_v7m_t_le.a(libc2.o)
 .text.libc.strftime
                0x00000000       0x34 C:/Program Files (x86)/Rowley Associates Limited/CrossWorks for ARM 2.3/lib/libc_v7m_t_le.a(libc2.o)
 .text.libc.strncasestr
                0x00000000       0x64 C:/Program Files (x86)/Rowley Associates Limited/CrossWorks for ARM 2.3/lib/libc_v7m_t_le.a(libc2.o)
 .text.libc.strncat
                0x00000000       0x38 C:/Program Files (x86)/Rowley Associates Limited/CrossWorks for ARM 2.3/lib/libc_v7m_t_le.a(libc2.o)
 .text.libc.strlcat
                0x00000000       0x6c C:/Program Files (x86)/Rowley Associates Limited/CrossWorks for ARM 2.3/lib/libc_v7m_t_le.a(libc2.o)
 .text.libc.strnchr
                0x00000000       0x34 C:/Program Files (x86)/Rowley Associates Limited/CrossWorks for ARM 2.3/lib/libc_v7m_t_le.a(libc2.o)
 .text.libc.strncmp
                0x00000000       0x60 C:/Program Files (x86)/Rowley Associates Limited/CrossWorks for ARM 2.3/lib/libc_v7m_t_le.a(libc2.o)
 .text.libc.strncpy
                0x00000000       0x3c C:/Program Files (x86)/Rowley Associates Limited/CrossWorks for ARM 2.3/lib/libc_v7m_t_le.a(libc2.o)
 .text.libc.strlcpy
                0x00000000       0x44 C:/Program Files (x86)/Rowley Associates Limited/CrossWorks for ARM 2.3/lib/libc_v7m_t_le.a(libc2.o)
 .text.libc.strnlen
                0x00000000       0x28 C:/Program Files (x86)/Rowley Associates Limited/CrossWorks for ARM 2.3/lib/libc_v7m_t_le.a(libc2.o)
 .text.libc.strndup
                0x00000000       0x28 C:/Program Files (x86)/Rowley Associates Limited/CrossWorks for ARM 2.3/lib/libc_v7m_t_le.a(libc2.o)
 .text.libc.strnstr
                0x00000000       0x60 C:/Program Files (x86)/Rowley Associates Limited/CrossWorks for ARM 2.3/lib/libc_v7m_t_le.a(libc2.o)
 .text.libc.strpbrk
                0x00000000       0x38 C:/Program Files (x86)/Rowley Associates Limited/CrossWorks for ARM 2.3/lib/libc_v7m_t_le.a(libc2.o)
 .text.libc.strrchr
                0x00000000       0x38 C:/Program Files (x86)/Rowley Associates Limited/CrossWorks for ARM 2.3/lib/libc_v7m_t_le.a(libc2.o)
 .text.libc.strsep
                0x00000000       0x58 C:/Program Files (x86)/Rowley Associates Limited/CrossWorks for ARM 2.3/lib/libc_v7m_t_le.a(libc2.o)
 .text.libc.strspn
                0x00000000       0x2c C:/Program Files (x86)/Rowley Associates Limited/CrossWorks for ARM 2.3/lib/libc_v7m_t_le.a(libc2.o)
 .text.libc.strstr
                0x00000000       0x50 C:/Program Files (x86)/Rowley Associates Limited/CrossWorks for ARM 2.3/lib/libc_v7m_t_le.a(libc2.o)
 .text.libc.strtod
                0x00000000      0x1bc C:/Program Files (x86)/Rowley Associates Limited/CrossWorks for ARM 2.3/lib/libc_v7m_t_le.a(libc2.o)
 .text.libc.strtof
                0x00000000      0x19c C:/Program Files (x86)/Rowley Associates Limited/CrossWorks for ARM 2.3/lib/libc_v7m_t_le.a(libc2.o)
 .text.libc.strtok
                0x00000000       0x98 C:/Program Files (x86)/Rowley Associates Limited/CrossWorks for ARM 2.3/lib/libc_v7m_t_le.a(libc2.o)
 .text.libc.strtok_r
                0x00000000       0x84 C:/Program Files (x86)/Rowley Associates Limited/CrossWorks for ARM 2.3/lib/libc_v7m_t_le.a(libc2.o)
 .text.libc.strtol
                0x00000000       0x8c C:/Program Files (x86)/Rowley Associates Limited/CrossWorks for ARM 2.3/lib/libc_v7m_t_le.a(libc2.o)
 .text.libc.atol
                0x00000000       0x24 C:/Program Files (x86)/Rowley Associates Limited/CrossWorks for ARM 2.3/lib/libc_v7m_t_le.a(libc2.o)
 .text.libc.atoi
                0x00000000       0x24 C:/Program Files (x86)/Rowley Associates Limited/CrossWorks for ARM 2.3/lib/libc_v7m_t_le.a(libc2.o)
 .text.libc.atof
                0x00000000      0x14c C:/Program Files (x86)/Rowley Associates Limited/CrossWorks for ARM 2.3/lib/libc_v7m_t_le.a(libc2.o)
 .text.libc.strtoll
                0x00000000       0xa4 C:/Program Files (x86)/Rowley Associates Limited/CrossWorks for ARM 2.3/lib/libc_v7m_t_le.a(libc2.o)
 .text.libc.atoll
                0x00000000       0x28 C:/Program Files (x86)/Rowley Associates Limited/CrossWorks for ARM 2.3/lib/libc_v7m_t_le.a(libc2.o)
 .text.libc.strtoul
                0x00000000       0xa0 C:/Program Files (x86)/Rowley Associates Limited/CrossWorks for ARM 2.3/lib/libc_v7m_t_le.a(libc2.o)
 .text.libc.strtoull
                0x00000000       0xb4 C:/Program Files (x86)/Rowley Associates Limited/CrossWorks for ARM 2.3/lib/libc_v7m_t_le.a(libc2.o)
 .text.libc.localtime_r
                0x00000000      0x190 C:/Program Files (x86)/Rowley Associates Limited/CrossWorks for ARM 2.3/lib/libc_v7m_t_le.a(libc2.o)
 .text.libc.difftime
                0x00000000        0xc C:/Program Files (x86)/Rowley Associates Limited/CrossWorks for ARM 2.3/lib/libc_v7m_t_le.a(libc2.o)
 .text.libc.checktm
                0x00000000      0x244 C:/Program Files (x86)/Rowley Associates Limited/CrossWorks for ARM 2.3/lib/libc_v7m_t_le.a(libc2.o)
 .text.libc.mktime
                0x00000000      0x1c0 C:/Program Files (x86)/Rowley Associates Limited/CrossWorks for ARM 2.3/lib/libc_v7m_t_le.a(libc2.o)
 .text.libc.ctime
                0x00000000       0x18 C:/Program Files (x86)/Rowley Associates Limited/CrossWorks for ARM 2.3/lib/libc_v7m_t_le.a(libc2.o)
 .text.libc.ctime_r
                0x00000000       0x18 C:/Program Files (x86)/Rowley Associates Limited/CrossWorks for ARM 2.3/lib/libc_v7m_t_le.a(libc2.o)
 .text.libc.gmtime
                0x00000000       0x14 C:/Program Files (x86)/Rowley Associates Limited/CrossWorks for ARM 2.3/lib/libc_v7m_t_le.a(libc2.o)
 .text.libc.gmtime_r
                0x00000000        0xc C:/Program Files (x86)/Rowley Associates Limited/CrossWorks for ARM 2.3/lib/libc_v7m_t_le.a(libc2.o)
 .text.libc.localtime
                0x00000000       0x14 C:/Program Files (x86)/Rowley Associates Limited/CrossWorks for ARM 2.3/lib/libc_v7m_t_le.a(libc2.o)
 .text.libc.gettimeofday
                0x00000000       0x1c C:/Program Files (x86)/Rowley Associates Limited/CrossWorks for ARM 2.3/lib/libc_v7m_t_le.a(libc2.o)
 .text.libc.settimeofday
                0x00000000       0x1c C:/Program Files (x86)/Rowley Associates Limited/CrossWorks for ARM 2.3/lib/libc_v7m_t_le.a(libc2.o)
 .text.libc.ulltoa
                0x00000000       0x14 C:/Program Files (x86)/Rowley Associates Limited/CrossWorks for ARM 2.3/lib/libc_v7m_t_le.a(libc2.o)
 .text.libc.ultoa
                0x00000000       0x10 C:/Program Files (x86)/Rowley Associates Limited/CrossWorks for ARM 2.3/lib/libc_v7m_t_le.a(libc2.o)
 .text.libc.utoa
                0x00000000       0x10 C:/Program Files (x86)/Rowley Associates Limited/CrossWorks for ARM 2.3/lib/libc_v7m_t_le.a(libc2.o)
 .text.libc.vsnprintf
                0x00000000       0x1c C:/Program Files (x86)/Rowley Associates Limited/CrossWorks for ARM 2.3/lib/libc_v7m_t_le.a(libc2.o)
 .text.libc.vsprintf
                0x00000000       0x1c C:/Program Files (x86)/Rowley Associates Limited/CrossWorks for ARM 2.3/lib/libc_v7m_t_le.a(libc2.o)
 .text.libc.vsscanf
                0x00000000       0x18 C:/Program Files (x86)/Rowley Associates Limited/CrossWorks for ARM 2.3/lib/libc_v7m_t_le.a(libc2.o)
 .text.libc.wcscat
                0x00000000       0x2c C:/Program Files (x86)/Rowley Associates Limited/CrossWorks for ARM 2.3/lib/libc_v7m_t_le.a(libc2.o)
 .text.libc.wcschr
                0x00000000       0x24 C:/Program Files (x86)/Rowley Associates Limited/CrossWorks for ARM 2.3/lib/libc_v7m_t_le.a(libc2.o)
 .text.libc.wcscmp
                0x00000000       0x38 C:/Program Files (x86)/Rowley Associates Limited/CrossWorks for ARM 2.3/lib/libc_v7m_t_le.a(libc2.o)
 .text.libc.wcscpy
                0x00000000       0x10 C:/Program Files (x86)/Rowley Associates Limited/CrossWorks for ARM 2.3/lib/libc_v7m_t_le.a(libc2.o)
 .text.libc.wcscspn
                0x00000000       0x30 C:/Program Files (x86)/Rowley Associates Limited/CrossWorks for ARM 2.3/lib/libc_v7m_t_le.a(libc2.o)
 .text.libc.wcslen
                0x00000000       0x20 C:/Program Files (x86)/Rowley Associates Limited/CrossWorks for ARM 2.3/lib/libc_v7m_t_le.a(libc2.o)
 .text.libc.wcsdup
                0x00000000       0x24 C:/Program Files (x86)/Rowley Associates Limited/CrossWorks for ARM 2.3/lib/libc_v7m_t_le.a(libc2.o)
 .text.libc.wcsncat
                0x00000000       0x3c C:/Program Files (x86)/Rowley Associates Limited/CrossWorks for ARM 2.3/lib/libc_v7m_t_le.a(libc2.o)
 .text.libc.wcsnchr
                0x00000000       0x2c C:/Program Files (x86)/Rowley Associates Limited/CrossWorks for ARM 2.3/lib/libc_v7m_t_le.a(libc2.o)
 .text.libc.wcsncmp
                0x00000000       0x54 C:/Program Files (x86)/Rowley Associates Limited/CrossWorks for ARM 2.3/lib/libc_v7m_t_le.a(libc2.o)
 .text.libc.wcsncpy
                0x00000000       0x3c C:/Program Files (x86)/Rowley Associates Limited/CrossWorks for ARM 2.3/lib/libc_v7m_t_le.a(libc2.o)
 .text.libc.wcsnlen
                0x00000000       0x2c C:/Program Files (x86)/Rowley Associates Limited/CrossWorks for ARM 2.3/lib/libc_v7m_t_le.a(libc2.o)
 .text.libc.wcsnstr
                0x00000000       0x5c C:/Program Files (x86)/Rowley Associates Limited/CrossWorks for ARM 2.3/lib/libc_v7m_t_le.a(libc2.o)
 .text.libc.wcspbrk
                0x00000000       0x38 C:/Program Files (x86)/Rowley Associates Limited/CrossWorks for ARM 2.3/lib/libc_v7m_t_le.a(libc2.o)
 .text.libc.wcsrchr
                0x00000000       0x34 C:/Program Files (x86)/Rowley Associates Limited/CrossWorks for ARM 2.3/lib/libc_v7m_t_le.a(libc2.o)
 .text.libc.wcssep
                0x00000000       0x58 C:/Program Files (x86)/Rowley Associates Limited/CrossWorks for ARM 2.3/lib/libc_v7m_t_le.a(libc2.o)
 .text.libc.wcsspn
                0x00000000       0x30 C:/Program Files (x86)/Rowley Associates Limited/CrossWorks for ARM 2.3/lib/libc_v7m_t_le.a(libc2.o)
 .text.libc.wcsstr
                0x00000000       0x50 C:/Program Files (x86)/Rowley Associates Limited/CrossWorks for ARM 2.3/lib/libc_v7m_t_le.a(libc2.o)
 .text.libc.wcstok
                0x00000000       0x98 C:/Program Files (x86)/Rowley Associates Limited/CrossWorks for ARM 2.3/lib/libc_v7m_t_le.a(libc2.o)
 .text.libc.wcstok_r
                0x00000000       0x84 C:/Program Files (x86)/Rowley Associates Limited/CrossWorks for ARM 2.3/lib/libc_v7m_t_le.a(libc2.o)
 .text.libc.wmemcpy
                0x00000000       0x18 C:/Program Files (x86)/Rowley Associates Limited/CrossWorks for ARM 2.3/lib/libc_v7m_t_le.a(libc2.o)
 .text.libc.wmemccpy
                0x00000000       0x34 C:/Program Files (x86)/Rowley Associates Limited/CrossWorks for ARM 2.3/lib/libc_v7m_t_le.a(libc2.o)
 .text.libc.wmempcpy
                0x00000000       0x10 C:/Program Files (x86)/Rowley Associates Limited/CrossWorks for ARM 2.3/lib/libc_v7m_t_le.a(libc2.o)
 .text.libc.wmemmove
                0x00000000       0x38 C:/Program Files (x86)/Rowley Associates Limited/CrossWorks for ARM 2.3/lib/libc_v7m_t_le.a(libc2.o)
 .text.libc.wmemcmp
                0x00000000       0x40 C:/Program Files (x86)/Rowley Associates Limited/CrossWorks for ARM 2.3/lib/libc_v7m_t_le.a(libc2.o)
 .text.libc.wmemchr
                0x00000000       0x2c C:/Program Files (x86)/Rowley Associates Limited/CrossWorks for ARM 2.3/lib/libc_v7m_t_le.a(libc2.o)
 .text.libc.wmemset
                0x00000000       0x10 C:/Program Files (x86)/Rowley Associates Limited/CrossWorks for ARM 2.3/lib/libc_v7m_t_le.a(libc2.o)
 .bss.libc.__crt_get_time_of_day
                0x00000000        0x4 C:/Program Files (x86)/Rowley Associates Limited/CrossWorks for ARM 2.3/lib/libc_v7m_t_le.a(libc2.o)
 .rodata.libc.year_lengths
                0x00000000        0x8 C:/Program Files (x86)/Rowley Associates Limited/CrossWorks for ARM 2.3/lib/libc_v7m_t_le.a(libc2.o)
 .rodata.libc.mon_name
                0x00000000       0x30 C:/Program Files (x86)/Rowley Associates Limited/CrossWorks for ARM 2.3/lib/libc_v7m_t_le.a(libc2.o)
 .bss.libc.last.2692
                0x00000000        0x4 C:/Program Files (x86)/Rowley Associates Limited/CrossWorks for ARM 2.3/lib/libc_v7m_t_le.a(libc2.o)
 .bss.libc.__atexitfns
                0x00000000       0x80 C:/Program Files (x86)/Rowley Associates Limited/CrossWorks for ARM 2.3/lib/libc_v7m_t_le.a(libc2.o)
 .rodata.libc.invalid
                0x00000000        0xc C:/Program Files (x86)/Rowley Associates Limited/CrossWorks for ARM 2.3/lib/libc_v7m_t_le.a(libc2.o)
 .rodata.libc.str1.4
                0x00000000      0x140 C:/Program Files (x86)/Rowley Associates Limited/CrossWorks for ARM 2.3/lib/libc_v7m_t_le.a(libc2.o)
 .data.libc.__RAL_rand_next
                0x00000000        0x4 C:/Program Files (x86)/Rowley Associates Limited/CrossWorks for ARM 2.3/lib/libc_v7m_t_le.a(libc2.o)
 .rodata.libc.__RAL_mon_lengths
                0x00000000       0x60 C:/Program Files (x86)/Rowley Associates Limited/CrossWorks for ARM 2.3/lib/libc_v7m_t_le.a(libc2.o)
 .bss.libc.last.3164
                0x00000000        0x4 C:/Program Files (x86)/Rowley Associates Limited/CrossWorks for ARM 2.3/lib/libc_v7m_t_le.a(libc2.o)
 .rodata.libc.day_name
                0x00000000       0x1c C:/Program Files (x86)/Rowley Associates Limited/CrossWorks for ARM 2.3/lib/libc_v7m_t_le.a(libc2.o)
 .rodata.libc.month_names
                0x00000000       0x34 C:/Program Files (x86)/Rowley Associates Limited/CrossWorks for ARM 2.3/lib/libc_v7m_t_le.a(libc2.o)
 .bss.libc.asctime_buf
                0x00000000       0x1c C:/Program Files (x86)/Rowley Associates Limited/CrossWorks for ARM 2.3/lib/libc_v7m_t_le.a(libc2.o)
 .rodata.libc.__ctype
                0x00000000      0x104 C:/Program Files (x86)/Rowley Associates Limited/CrossWorks for ARM 2.3/lib/libc_v7m_t_le.a(libc2.o)
 .bss.libc.__crt_set_time_of_day
                0x00000000        0x4 C:/Program Files (x86)/Rowley Associates Limited/CrossWorks for ARM 2.3/lib/libc_v7m_t_le.a(libc2.o)
 .bss.libc.atexitfn_count
                0x00000000        0x4 C:/Program Files (x86)/Rowley Associates Limited/CrossWorks for ARM 2.3/lib/libc_v7m_t_le.a(libc2.o)
 .data.libc.__ungot
                0x00000000        0x4 C:/Program Files (x86)/Rowley Associates Limited/CrossWorks for ARM 2.3/lib/libc_v7m_t_le.a(libc2.o)
 .data.libc._lconv
                0x00000000       0x38 C:/Program Files (x86)/Rowley Associates Limited/CrossWorks for ARM 2.3/lib/libc_v7m_t_le.a(libc2.o)
 .bss.libc._tm  0x00000000       0x24 C:/Program Files (x86)/Rowley Associates Limited/CrossWorks for ARM 2.3/lib/libc_v7m_t_le.a(libc2.o)
 .rodata.libc.day_names
                0x00000000       0x20 C:/Program Files (x86)/Rowley Associates Limited/CrossWorks for ARM 2.3/lib/libc_v7m_t_le.a(libc2.o)
 .text.libc     0x00000000        0x0 C:/Program Files (x86)/Rowley Associates Limited/CrossWorks for ARM 2.3/lib/libc_v7m_t_le.a(libc2_asm.o)
 .data.libc     0x00000000        0x0 C:/Program Files (x86)/Rowley Associates Limited/CrossWorks for ARM 2.3/lib/libc_v7m_t_le.a(libc2_asm.o)
 .bss.libc      0x00000000        0x0 C:/Program Files (x86)/Rowley Associates Limited/CrossWorks for ARM 2.3/lib/libc_v7m_t_le.a(libc2_asm.o)
 .text.libc.longjmp
                0x00000000       0x14 C:/Program Files (x86)/Rowley Associates Limited/CrossWorks for ARM 2.3/lib/libc_v7m_t_le.a(libc2_asm.o)
 .text.libc.memcpy_fast
                0x00000000        0x4 C:/Program Files (x86)/Rowley Associates Limited/CrossWorks for ARM 2.3/lib/libc_v7m_t_le.a(libc2_asm.o)
 .text.libc.memcpy_small
                0x00000000       0x1c C:/Program Files (x86)/Rowley Associates Limited/CrossWorks for ARM 2.3/lib/libc_v7m_t_le.a(libc2_asm.o)
 .text.libc.__aeabi_memset
                0x00000000       0x64 C:/Program Files (x86)/Rowley Associates Limited/CrossWorks for ARM 2.3/lib/libc_v7m_t_le.a(libc2_asm.o)
 .text.libc.setjmp
                0x00000000        0xc C:/Program Files (x86)/Rowley Associates Limited/CrossWorks for ARM 2.3/lib/libc_v7m_t_le.a(libc2_asm.o)
 .text.libc.strcpy
                0x00000000       0x44 C:/Program Files (x86)/Rowley Associates Limited/CrossWorks for ARM 2.3/lib/libc_v7m_t_le.a(libc2_asm.o)
 .text.libc.strcmp
                0x00000000       0x50 C:/Program Files (x86)/Rowley Associates Limited/CrossWorks for ARM 2.3/lib/libc_v7m_t_le.a(libc2_asm.o)
 .text          0x00000000        0x0 C:/Program Files (x86)/Rowley Associates Limited/CrossWorks for ARM 2.3/lib/libc_v7m_t_le.a(__vfprintf_double_long_long.o)
 .data          0x00000000        0x0 C:/Program Files (x86)/Rowley Associates Limited/CrossWorks for ARM 2.3/lib/libc_v7m_t_le.a(__vfprintf_double_long_long.o)
 .bss           0x00000000        0x0 C:/Program Files (x86)/Rowley Associates Limited/CrossWorks for ARM 2.3/lib/libc_v7m_t_le.a(__vfprintf_double_long_long.o)
 .text.libc     0x00000000        0x0 C:/Program Files (x86)/Rowley Associates Limited/CrossWorks for ARM 2.3/lib/libc_v7m_t_le.a(__vfprintf_double_long_long.o)
 .text          0x00000000        0x0 C:/Program Files (x86)/Rowley Associates Limited/CrossWorks for ARM 2.3/lib/libc_v7m_t_le.a(__vfscanf_double_long_long.o)
 .data          0x00000000        0x0 C:/Program Files (x86)/Rowley Associates Limited/CrossWorks for ARM 2.3/lib/libc_v7m_t_le.a(__vfscanf_double_long_long.o)
 .bss           0x00000000        0x0 C:/Program Files (x86)/Rowley Associates Limited/CrossWorks for ARM 2.3/lib/libc_v7m_t_le.a(__vfscanf_double_long_long.o)
 .text.libc     0x00000000        0x0 C:/Program Files (x86)/Rowley Associates Limited/CrossWorks for ARM 2.3/lib/libc_v7m_t_le.a(__vfscanf_double_long_long.o)
 .text.libc     0x00000000        0x0 C:/Program Files (x86)/Rowley Associates Limited/CrossWorks for ARM 2.3/lib/libc_v7m_t_le.a(libc_asm.o)
 .data.libc     0x00000000        0x0 C:/Program Files (x86)/Rowley Associates Limited/CrossWorks for ARM 2.3/lib/libc_v7m_t_le.a(libc_asm.o)
 .bss.libc      0x00000000        0x0 C:/Program Files (x86)/Rowley Associates Limited/CrossWorks for ARM 2.3/lib/libc_v7m_t_le.a(libc_asm.o)
 .text.libc._call_via_r4
                0x00000000        0x4 C:/Program Files (x86)/Rowley Associates Limited/CrossWorks for ARM 2.3/lib/libc_v7m_t_le.a(libc_asm.o)
 .text.libc._call_via_r1
                0x00000000        0x4 C:/Program Files (x86)/Rowley Associates Limited/CrossWorks for ARM 2.3/lib/libc_v7m_t_le.a(libc_asm.o)
 .text.libc._call_via_r2
                0x00000000        0x4 C:/Program Files (x86)/Rowley Associates Limited/CrossWorks for ARM 2.3/lib/libc_v7m_t_le.a(libc_asm.o)
 .text.libc._call_via_r3
                0x00000000        0x4 C:/Program Files (x86)/Rowley Associates Limited/CrossWorks for ARM 2.3/lib/libc_v7m_t_le.a(libc_asm.o)
 .text.libc._call_via_r0
                0x00000000        0x4 C:/Program Files (x86)/Rowley Associates Limited/CrossWorks for ARM 2.3/lib/libc_v7m_t_le.a(libc_asm.o)
 .text.libc._call_via_r5
                0x00000000        0x4 C:/Program Files (x86)/Rowley Associates Limited/CrossWorks for ARM 2.3/lib/libc_v7m_t_le.a(libc_asm.o)
 .text.libc._call_via_sp
                0x00000000        0x4 C:/Program Files (x86)/Rowley Associates Limited/CrossWorks for ARM 2.3/lib/libc_v7m_t_le.a(libc_asm.o)
 .text.libc._call_via_r7
                0x00000000        0x4 C:/Program Files (x86)/Rowley Associates Limited/CrossWorks for ARM 2.3/lib/libc_v7m_t_le.a(libc_asm.o)
 .text.libc._call_via_r8
                0x00000000        0x4 C:/Program Files (x86)/Rowley Associates Limited/CrossWorks for ARM 2.3/lib/libc_v7m_t_le.a(libc_asm.o)
 .text.libc._call_via_r9
                0x00000000        0x4 C:/Program Files (x86)/Rowley Associates Limited/CrossWorks for ARM 2.3/lib/libc_v7m_t_le.a(libc_asm.o)
 .text.libc._call_via_sl
                0x00000000        0x4 C:/Program Files (x86)/Rowley Associates Limited/CrossWorks for ARM 2.3/lib/libc_v7m_t_le.a(libc_asm.o)
 .text.libc._call_via_r6
                0x00000000        0x4 C:/Program Files (x86)/Rowley Associates Limited/CrossWorks for ARM 2.3/lib/libc_v7m_t_le.a(libc_asm.o)
 .text.libc._call_via_lr
                0x00000000        0x4 C:/Program Files (x86)/Rowley Associates Limited/CrossWorks for ARM 2.3/lib/libc_v7m_t_le.a(libc_asm.o)
 .text.libc._call_via_ip
                0x00000000        0x4 C:/Program Files (x86)/Rowley Associates Limited/CrossWorks for ARM 2.3/lib/libc_v7m_t_le.a(libc_asm.o)
 .text.libc._call_via_fp
                0x00000000        0x4 C:/Program Files (x86)/Rowley Associates Limited/CrossWorks for ARM 2.3/lib/libc_v7m_t_le.a(libc_asm.o)
 .text.libc.__int64_asr
                0x00000000       0x28 C:/Program Files (x86)/Rowley Associates Limited/CrossWorks for ARM 2.3/lib/libc_v7m_t_le.a(libc_asm.o)
 .text.libc.__int64_div
                0x00000000       0x44 C:/Program Files (x86)/Rowley Associates Limited/CrossWorks for ARM 2.3/lib/libc_v7m_t_le.a(libc_asm.o)
 .text.libc.__int64_lsl
                0x00000000       0x28 C:/Program Files (x86)/Rowley Associates Limited/CrossWorks for ARM 2.3/lib/libc_v7m_t_le.a(libc_asm.o)
 .text.libc.__int64_lsr
                0x00000000       0x28 C:/Program Files (x86)/Rowley Associates Limited/CrossWorks for ARM 2.3/lib/libc_v7m_t_le.a(libc_asm.o)
 .text.libc.__int64_mod
                0x00000000       0x48 C:/Program Files (x86)/Rowley Associates Limited/CrossWorks for ARM 2.3/lib/libc_v7m_t_le.a(libc_asm.o)
 .text.libc.__aeabi_ldivmod
                0x00000000       0x58 C:/Program Files (x86)/Rowley Associates Limited/CrossWorks for ARM 2.3/lib/libc_v7m_t_le.a(libc_asm.o)
 .text.libc.__int64_cmp
                0x00000000       0x1c C:/Program Files (x86)/Rowley Associates Limited/CrossWorks for ARM 2.3/lib/libc_v7m_t_le.a(libc_asm.o)
 .text.libc.__int64_ucmp
                0x00000000       0x18 C:/Program Files (x86)/Rowley Associates Limited/CrossWorks for ARM 2.3/lib/libc_v7m_t_le.a(libc_asm.o)
 .text.libc.muldi3
                0x00000000       0x18 C:/Program Files (x86)/Rowley Associates Limited/CrossWorks for ARM 2.3/lib/libc_v7m_t_le.a(libc_asm.o)
 .text.libc.__int32_umod
                0x00000000        0xc C:/Program Files (x86)/Rowley Associates Limited/CrossWorks for ARM 2.3/lib/libc_v7m_t_le.a(libc_asm.o)
 .text.libc.__int32_div
                0x00000000      0x310 C:/Program Files (x86)/Rowley Associates Limited/CrossWorks for ARM 2.3/lib/libc_v7m_t_le.a(libc_asm.o)
 .rodata.libc.__aeabi_idiv
                0x00000000        0xa C:/Program Files (x86)/Rowley Associates Limited/CrossWorks for ARM 2.3/lib/libc_v7m_t_le.a(libc_asm.o)
 .rodata.libc.__aeabi_uidiv
                0x00000000       0x46 C:/Program Files (x86)/Rowley Associates Limited/CrossWorks for ARM 2.3/lib/libc_v7m_t_le.a(libc_asm.o)
 .text.libc.__int32_mod
                0x00000000        0xc C:/Program Files (x86)/Rowley Associates Limited/CrossWorks for ARM 2.3/lib/libc_v7m_t_le.a(libc_asm.o)
 .text.libc.__aeabi_uidivmod
                0x00000000       0x2c C:/Program Files (x86)/Rowley Associates Limited/CrossWorks for ARM 2.3/lib/libc_v7m_t_le.a(libc_asm.o)
 .text.libc.__aeabi_idivmod
                0x00000000       0x4c C:/Program Files (x86)/Rowley Associates Limited/CrossWorks for ARM 2.3/lib/libc_v7m_t_le.a(libc_asm.o)
 .text.libc.ctl_count_leading_zeros_32
                0x00000000       0x40 C:/Program Files (x86)/Rowley Associates Limited/CrossWorks for ARM 2.3/lib/libc_v7m_t_le.a(libc_asm.o)
 .text.libc.ctl_count_leading_zeros_16
                0x00000000       0x34 C:/Program Files (x86)/Rowley Associates Limited/CrossWorks for ARM 2.3/lib/libc_v7m_t_le.a(libc_asm.o)
 .text.libc.__gnu_thumb1_case_shi
                0x00000000       0x14 C:/Program Files (x86)/Rowley Associates Limited/CrossWorks for ARM 2.3/lib/libc_v7m_t_le.a(libc_asm.o)
 .text.libc.__gnu_thumb1_case_si
                0x00000000       0x18 C:/Program Files (x86)/Rowley Associates Limited/CrossWorks for ARM 2.3/lib/libc_v7m_t_le.a(libc_asm.o)
 .text.libc.__gnu_thumb1_case_sqi
                0x00000000       0x14 C:/Program Files (x86)/Rowley Associates Limited/CrossWorks for ARM 2.3/lib/libc_v7m_t_le.a(libc_asm.o)
 .text.libc.__gnu_thumb1_case_uhi
                0x00000000       0x14 C:/Program Files (x86)/Rowley Associates Limited/CrossWorks for ARM 2.3/lib/libc_v7m_t_le.a(libc_asm.o)
 .text.libc.__gnu_thumb1_case_uqi
                0x00000000       0x14 C:/Program Files (x86)/Rowley Associates Limited/CrossWorks for ARM 2.3/lib/libc_v7m_t_le.a(libc_asm.o)
 .text          0x00000000        0x0 C:/Program Files (x86)/Rowley Associates Limited/CrossWorks for ARM 2.3/lib/libdebugio_v7m_t_le.a(libdebugio.o)
 .data          0x00000000        0x0 C:/Program Files (x86)/Rowley Associates Limited/CrossWorks for ARM 2.3/lib/libdebugio_v7m_t_le.a(libdebugio.o)
 .bss           0x00000000        0x0 C:/Program Files (x86)/Rowley Associates Limited/CrossWorks for ARM 2.3/lib/libdebugio_v7m_t_le.a(libdebugio.o)
 .text.libdebugio
                0x00000000        0x0 C:/Program Files (x86)/Rowley Associates Limited/CrossWorks for ARM 2.3/lib/libdebugio_v7m_t_le.a(libdebugio.o)
 .text.libdebugio.__do_nvdebug_operation
                0x00000000       0x18 C:/Program Files (x86)/Rowley Associates Limited/CrossWorks for ARM 2.3/lib/libdebugio_v7m_t_le.a(libdebugio.o)
 .text.libdebugio.debug_abort
                0x00000000       0x14 C:/Program Files (x86)/Rowley Associates Limited/CrossWorks for ARM 2.3/lib/libdebugio_v7m_t_le.a(libdebugio.o)
 .text.libdebugio.debug_fopen
                0x00000000       0x1c C:/Program Files (x86)/Rowley Associates Limited/CrossWorks for ARM 2.3/lib/libdebugio_v7m_t_le.a(libdebugio.o)
 .text.libdebugio.debug_fgets
                0x00000000       0x28 C:/Program Files (x86)/Rowley Associates Limited/CrossWorks for ARM 2.3/lib/libdebugio_v7m_t_le.a(libdebugio.o)
 .text.libdebugio.debug_fputc
                0x00000000       0x14 C:/Program Files (x86)/Rowley Associates Limited/CrossWorks for ARM 2.3/lib/libdebugio_v7m_t_le.a(libdebugio.o)
 .text.libdebugio.debug_fputs
                0x00000000       0x14 C:/Program Files (x86)/Rowley Associates Limited/CrossWorks for ARM 2.3/lib/libdebugio_v7m_t_le.a(libdebugio.o)
 .text.libdebugio.debug_fread
                0x00000000       0x2c C:/Program Files (x86)/Rowley Associates Limited/CrossWorks for ARM 2.3/lib/libdebugio_v7m_t_le.a(libdebugio.o)
 .text.libdebugio.debug_fwrite
                0x00000000       0x20 C:/Program Files (x86)/Rowley Associates Limited/CrossWorks for ARM 2.3/lib/libdebugio_v7m_t_le.a(libdebugio.o)
 .text.libdebugio.debug_fseek
                0x00000000       0x18 C:/Program Files (x86)/Rowley Associates Limited/CrossWorks for ARM 2.3/lib/libdebugio_v7m_t_le.a(libdebugio.o)
 .text.libdebugio.debug_ftell
                0x00000000       0x20 C:/Program Files (x86)/Rowley Associates Limited/CrossWorks for ARM 2.3/lib/libdebugio_v7m_t_le.a(libdebugio.o)
 .text.libdebugio.debug_gets
                0x00000000       0x1c C:/Program Files (x86)/Rowley Associates Limited/CrossWorks for ARM 2.3/lib/libdebugio_v7m_t_le.a(libdebugio.o)
 .text.libdebugio.debug_fflush
                0x00000000       0x10 C:/Program Files (x86)/Rowley Associates Limited/CrossWorks for ARM 2.3/lib/libdebugio_v7m_t_le.a(libdebugio.o)
 .text.libdebugio.debug_fclose
                0x00000000       0x10 C:/Program Files (x86)/Rowley Associates Limited/CrossWorks for ARM 2.3/lib/libdebugio_v7m_t_le.a(libdebugio.o)
 .text.libdebugio.debug_fgetc
                0x00000000       0x18 C:/Program Files (x86)/Rowley Associates Limited/CrossWorks for ARM 2.3/lib/libdebugio_v7m_t_le.a(libdebugio.o)
 .text.libdebugio.debug_getchar
                0x00000000       0x1c C:/Program Files (x86)/Rowley Associates Limited/CrossWorks for ARM 2.3/lib/libdebugio_v7m_t_le.a(libdebugio.o)
 .text.libdebugio.debug_putchar
                0x00000000       0x1c C:/Program Files (x86)/Rowley Associates Limited/CrossWorks for ARM 2.3/lib/libdebugio_v7m_t_le.a(libdebugio.o)
 .text.libdebugio.debug_puts
                0x00000000       0x10 C:/Program Files (x86)/Rowley Associates Limited/CrossWorks for ARM 2.3/lib/libdebugio_v7m_t_le.a(libdebugio.o)
 .text.libdebugio.debug_rewind
                0x00000000       0x10 C:/Program Files (x86)/Rowley Associates Limited/CrossWorks for ARM 2.3/lib/libdebugio_v7m_t_le.a(libdebugio.o)
 .text.libdebugio.debug_clearerr
                0x00000000       0x10 C:/Program Files (x86)/Rowley Associates Limited/CrossWorks for ARM 2.3/lib/libdebugio_v7m_t_le.a(libdebugio.o)
 .text.libdebugio.debug_feof
                0x00000000       0x10 C:/Program Files (x86)/Rowley Associates Limited/CrossWorks for ARM 2.3/lib/libdebugio_v7m_t_le.a(libdebugio.o)
 .text.libdebugio.debug_ferror
                0x00000000       0x10 C:/Program Files (x86)/Rowley Associates Limited/CrossWorks for ARM 2.3/lib/libdebugio_v7m_t_le.a(libdebugio.o)
 .text.libdebugio.debug_getch
                0x00000000       0x1c C:/Program Files (x86)/Rowley Associates Limited/CrossWorks for ARM 2.3/lib/libdebugio_v7m_t_le.a(libdebugio.o)
 .text.libdebugio.debug_time
                0x00000000       0x28 C:/Program Files (x86)/Rowley Associates Limited/CrossWorks for ARM 2.3/lib/libdebugio_v7m_t_le.a(libdebugio.o)
 .text.libdebugio.debug_vprintf
                0x00000000       0x14 C:/Program Files (x86)/Rowley Associates Limited/CrossWorks for ARM 2.3/lib/libdebugio_v7m_t_le.a(libdebugio.o)
 .text.libdebugio.debug_vfprintf
                0x00000000       0x18 C:/Program Files (x86)/Rowley Associates Limited/CrossWorks for ARM 2.3/lib/libdebugio_v7m_t_le.a(libdebugio.o)
 .text.libdebugio.debug_ungetc
                0x00000000       0x14 C:/Program Files (x86)/Rowley Associates Limited/CrossWorks for ARM 2.3/lib/libdebugio_v7m_t_le.a(libdebugio.o)
 .text.libdebugio.debug_fgetpos
                0x00000000       0x14 C:/Program Files (x86)/Rowley Associates Limited/CrossWorks for ARM 2.3/lib/libdebugio_v7m_t_le.a(libdebugio.o)
 .text.libdebugio.debug_fsetpos
                0x00000000       0x14 C:/Program Files (x86)/Rowley Associates Limited/CrossWorks for ARM 2.3/lib/libdebugio_v7m_t_le.a(libdebugio.o)
 .text.libdebugio.debug_freopen
                0x00000000       0x20 C:/Program Files (x86)/Rowley Associates Limited/CrossWorks for ARM 2.3/lib/libdebugio_v7m_t_le.a(libdebugio.o)
 .text.libdebugio.debug_perror
                0x00000000       0x10 C:/Program Files (x86)/Rowley Associates Limited/CrossWorks for ARM 2.3/lib/libdebugio_v7m_t_le.a(libdebugio.o)
 .text.libdebugio.debug_remove
                0x00000000       0x10 C:/Program Files (x86)/Rowley Associates Limited/CrossWorks for ARM 2.3/lib/libdebugio_v7m_t_le.a(libdebugio.o)
 .text.libdebugio.debug_rename
                0x00000000       0x14 C:/Program Files (x86)/Rowley Associates Limited/CrossWorks for ARM 2.3/lib/libdebugio_v7m_t_le.a(libdebugio.o)
 .text.libdebugio.debug_tmpfile
                0x00000000       0x18 C:/Program Files (x86)/Rowley Associates Limited/CrossWorks for ARM 2.3/lib/libdebugio_v7m_t_le.a(libdebugio.o)
 .text.libdebugio.debug_tmpnam
                0x00000000       0x28 C:/Program Files (x86)/Rowley Associates Limited/CrossWorks for ARM 2.3/lib/libdebugio_v7m_t_le.a(libdebugio.o)
 .text.libdebugio.debug_getenv
                0x00000000       0x2c C:/Program Files (x86)/Rowley Associates Limited/CrossWorks for ARM 2.3/lib/libdebugio_v7m_t_le.a(libdebugio.o)
 .text.libdebugio.debug_system
                0x00000000       0x10 C:/Program Files (x86)/Rowley Associates Limited/CrossWorks for ARM 2.3/lib/libdebugio_v7m_t_le.a(libdebugio.o)
 .text.libdebugio.debug_vfscanf
                0x00000000       0x18 C:/Program Files (x86)/Rowley Associates Limited/CrossWorks for ARM 2.3/lib/libdebugio_v7m_t_le.a(libdebugio.o)
 .text.libdebugio.debug_vscanf
                0x00000000       0x1c C:/Program Files (x86)/Rowley Associates Limited/CrossWorks for ARM 2.3/lib/libdebugio_v7m_t_le.a(libdebugio.o)
 .text.libdebugio.debug_exit
                0x00000000       0x10 C:/Program Files (x86)/Rowley Associates Limited/CrossWorks for ARM 2.3/lib/libdebugio_v7m_t_le.a(libdebugio.o)
 .text.libdebugio.debug_enabled
                0x00000000        0xc C:/Program Files (x86)/Rowley Associates Limited/CrossWorks for ARM 2.3/lib/libdebugio_v7m_t_le.a(libdebugio.o)
 .text.libdebugio.debug_kbhit
                0x00000000       0x14 C:/Program Files (x86)/Rowley Associates Limited/CrossWorks for ARM 2.3/lib/libdebugio_v7m_t_le.a(libdebugio.o)
 .text.libdebugio.debug_ioctl
                0x00000000       0x14 C:/Program Files (x86)/Rowley Associates Limited/CrossWorks for ARM 2.3/lib/libdebugio_v7m_t_le.a(libdebugio.o)
 .text.libdebugio.debug_runtime_error
                0x00000000       0x10 C:/Program Files (x86)/Rowley Associates Limited/CrossWorks for ARM 2.3/lib/libdebugio_v7m_t_le.a(libdebugio.o)
 .text.libdebugio.debug_break
                0x00000000       0x14 C:/Program Files (x86)/Rowley Associates Limited/CrossWorks for ARM 2.3/lib/libdebugio_v7m_t_le.a(libdebugio.o)
 .text.libdebugio.debug_getargs
                0x00000000       0x10 C:/Program Files (x86)/Rowley Associates Limited/CrossWorks for ARM 2.3/lib/libdebugio_v7m_t_le.a(libdebugio.o)
 .text.libdebugio.debug_geti
                0x00000000       0x18 C:/Program Files (x86)/Rowley Associates Limited/CrossWorks for ARM 2.3/lib/libdebugio_v7m_t_le.a(libdebugio.o)
 .text.libdebugio.debug_getu
                0x00000000       0x18 C:/Program Files (x86)/Rowley Associates Limited/CrossWorks for ARM 2.3/lib/libdebugio_v7m_t_le.a(libdebugio.o)
 .text.libdebugio.debug_getl
                0x00000000       0x18 C:/Program Files (x86)/Rowley Associates Limited/CrossWorks for ARM 2.3/lib/libdebugio_v7m_t_le.a(libdebugio.o)
 .text.libdebugio.debug_getul
                0x00000000       0x18 C:/Program Files (x86)/Rowley Associates Limited/CrossWorks for ARM 2.3/lib/libdebugio_v7m_t_le.a(libdebugio.o)
 .text.libdebugio.debug_getf
                0x00000000       0x18 C:/Program Files (x86)/Rowley Associates Limited/CrossWorks for ARM 2.3/lib/libdebugio_v7m_t_le.a(libdebugio.o)
 .text.libdebugio.debug_getd
                0x00000000       0x18 C:/Program Files (x86)/Rowley Associates Limited/CrossWorks for ARM 2.3/lib/libdebugio_v7m_t_le.a(libdebugio.o)
 .text.libdebugio.debug_getll
                0x00000000       0x18 C:/Program Files (x86)/Rowley Associates Limited/CrossWorks for ARM 2.3/lib/libdebugio_v7m_t_le.a(libdebugio.o)
 .text.libdebugio.debug_getull
                0x00000000       0x18 C:/Program Files (x86)/Rowley Associates Limited/CrossWorks for ARM 2.3/lib/libdebugio_v7m_t_le.a(libdebugio.o)
 .text.libdebugio.debug_filesize
                0x00000000       0x10 C:/Program Files (x86)/Rowley Associates Limited/CrossWorks for ARM 2.3/lib/libdebugio_v7m_t_le.a(libdebugio.o)
 .text.libdebugio.debug_accept
                0x00000000       0x30 C:/Program Files (x86)/Rowley Associates Limited/CrossWorks for ARM 2.3/lib/libdebugio_v7m_t_le.a(libdebugio.o)
 .text.libdebugio.debug_bind
                0x00000000       0x2c C:/Program Files (x86)/Rowley Associates Limited/CrossWorks for ARM 2.3/lib/libdebugio_v7m_t_le.a(libdebugio.o)
 .text.libdebugio.debug_listen
                0x00000000       0x14 C:/Program Files (x86)/Rowley Associates Limited/CrossWorks for ARM 2.3/lib/libdebugio_v7m_t_le.a(libdebugio.o)
 .text.libdebugio.debug_shutdown
                0x00000000       0x14 C:/Program Files (x86)/Rowley Associates Limited/CrossWorks for ARM 2.3/lib/libdebugio_v7m_t_le.a(libdebugio.o)
 .text.libdebugio.debug_socket
                0x00000000       0x18 C:/Program Files (x86)/Rowley Associates Limited/CrossWorks for ARM 2.3/lib/libdebugio_v7m_t_le.a(libdebugio.o)
 .text.libdebugio.debug_htons
                0x00000000       0x10 C:/Program Files (x86)/Rowley Associates Limited/CrossWorks for ARM 2.3/lib/libdebugio_v7m_t_le.a(libdebugio.o)
 .text.libdebugio.debug_htonl
                0x00000000       0x1c C:/Program Files (x86)/Rowley Associates Limited/CrossWorks for ARM 2.3/lib/libdebugio_v7m_t_le.a(libdebugio.o)
 .text.libdebugio.debug_loadsymbols
                0x00000000       0x18 C:/Program Files (x86)/Rowley Associates Limited/CrossWorks for ARM 2.3/lib/libdebugio_v7m_t_le.a(libdebugio.o)
 .text.libdebugio.debug_unloadsymbols
                0x00000000       0x10 C:/Program Files (x86)/Rowley Associates Limited/CrossWorks for ARM 2.3/lib/libdebugio_v7m_t_le.a(libdebugio.o)
 .bss.libdebugio.getenv_buffer
                0x00000000      0x400 C:/Program Files (x86)/Rowley Associates Limited/CrossWorks for ARM 2.3/lib/libdebugio_v7m_t_le.a(libdebugio.o)
 .bss.libdebugio.__dbgEnabled
                0x00000000        0x4 C:/Program Files (x86)/Rowley Associates Limited/CrossWorks for ARM 2.3/lib/libdebugio_v7m_t_le.a(libdebugio.o)
 .bss.libdebugio.tmpnam_buffer
                0x00000000      0x100 C:/Program Files (x86)/Rowley Associates Limited/CrossWorks for ARM 2.3/lib/libdebugio_v7m_t_le.a(libdebugio.o)
 .text          0x00000000        0x0 C:/Program Files (x86)/Rowley Associates Limited/CrossWorks for ARM 2.3/lib/libc_user_libc_v7m_t_le.a(user_libc.o)
 .data          0x00000000        0x0 C:/Program Files (x86)/Rowley Associates Limited/CrossWorks for ARM 2.3/lib/libc_user_libc_v7m_t_le.a(user_libc.o)
 .bss           0x00000000        0x0 C:/Program Files (x86)/Rowley Associates Limited/CrossWorks for ARM 2.3/lib/libc_user_libc_v7m_t_le.a(user_libc.o)
 .text.libc     0x00000000        0x0 C:/Program Files (x86)/Rowley Associates Limited/CrossWorks for ARM 2.3/lib/libc_user_libc_v7m_t_le.a(user_libc.o)
 .text.libc.__printf_lock
                0x00000000        0x4 C:/Program Files (x86)/Rowley Associates Limited/CrossWorks for ARM 2.3/lib/libc_user_libc_v7m_t_le.a(user_libc.o)
 .text.libc.__printf_unlock
                0x00000000        0x4 C:/Program Files (x86)/Rowley Associates Limited/CrossWorks for ARM 2.3/lib/libc_user_libc_v7m_t_le.a(user_libc.o)
 .text.libc.__scanf_lock
                0x00000000        0x4 C:/Program Files (x86)/Rowley Associates Limited/CrossWorks for ARM 2.3/lib/libc_user_libc_v7m_t_le.a(user_libc.o)
 .text.libc.__scanf_unlock
                0x00000000        0x4 C:/Program Files (x86)/Rowley Associates Limited/CrossWorks for ARM 2.3/lib/libc_user_libc_v7m_t_le.a(user_libc.o)

Memory Configuration

Name             Origin             Length             Attributes
UNPLACED_SECTIONS 0xffffffff         0x00000000         xw
FLASH            0x08000000         0x00010000         xr
RAM              0x20000000         0x00005000         xw
APB1             0x40000000         0x00010000         xw
APB2             0x40010000         0x00018000         xw
AHB              0x40020000         0x00003400         xw
PPB              0xe0000000         0x00100000         xw
USB_CAN_RAM      0x40006000         0x00000200         xw
CM3_System_Control_Space 0xe000e000         0x00001000         xw
*default*        0x00000000         0xffffffff

Linker script and memory map

                0x0800db84                __do_debug_operation = __do_debug_operation_mempoll
                0x0800c1f0                __vfprintf = __vfprintf_double_long_long
                0x0800d420                __vfscanf = __vfscanf_double_long_long
                0x08000000                __FLASH_segment_start__ = 0x8000000
                0x08010000                __FLASH_segment_end__ = 0x8010000
                0x20000000                __RAM_segment_start__ = 0x20000000
                0x20005000                __RAM_segment_end__ = 0x20005000
                0x40000000                __APB1_segment_start__ = 0x40000000
                0x40010000                __APB1_segment_end__ = 0x40010000
                0x40010000                __APB2_segment_start__ = 0x40010000
                0x40028000                __APB2_segment_end__ = 0x40028000
                0x40020000                __AHB_segment_start__ = 0x40020000
                0x40023400                __AHB_segment_end__ = 0x40023400
                0xe0000000                __PPB_segment_start__ = 0xe0000000
                0xe0100000                __PPB_segment_end__ = 0xe0100000
                0x40006000                __USB_CAN_RAM_segment_start__ = 0x40006000
                0x40006200                __USB_CAN_RAM_segment_end__ = 0x40006200
                0xe000e000                __CM3_System_Control_Space_segment_start__ = 0xe000e000
                0xe000f000                __CM3_System_Control_Space_segment_end__ = 0xe000f000
                0x00000400                __STACKSIZE__ = 0x400
                0x00000000                __STACKSIZE_PROCESS__ = 0x0
                0x00000000                __STACKSIZE_IRQ__ = 0x0
                0x00000000                __STACKSIZE_FIQ__ = 0x0
                0x00000000                __STACKSIZE_SVC__ = 0x0
                0x00000000                __STACKSIZE_ABT__ = 0x0
                0x00000000                __STACKSIZE_UND__ = 0x0
                0x00000400                __HEAPSIZE__ = 0x400
                0x20000000                __vectors_ram_load_start__ = ALIGN (__RAM_segment_start__, 0x100)

.vectors_ram    0x20000000        0x0
                0x20000000                __vectors_ram_start__ = .
 *(.vectors_ram .vectors_ram.*)
                0x20000000                __vectors_ram_end__ = (__vectors_ram_start__ + SIZEOF (.vectors_ram))
                0x20000000                __vectors_ram_load_end__ = __vectors_ram_end__
                0x00000001                . = ASSERT (((__vectors_ram_end__ >= __RAM_segment_start__) && (__vectors_ram_end__ <= __RAM_segment_end__)), error: .vectors_ram is too large to fit in RAM memory segment)
                0x08000000                __vectors_load_start__ = ALIGN (__FLASH_segment_start__, 0x100)

.vectors        0x08000000       0xec
                0x08000000                __vectors_start__ = .
 *(.vectors .vectors.*)
 .vectors       0x08000000       0xec THUMB Debug/STM32_Startup.o
                0x08000000                _vectors
                0x080000ec                __vectors_end__ = (__vectors_start__ + SIZEOF (.vectors))
                0x080000ec                __vectors_load_end__ = __vectors_end__
                0x00000001                . = ASSERT (((__vectors_end__ >= __FLASH_segment_start__) && (__vectors_end__ <= __FLASH_segment_end__)), error: .vectors is too large to fit in FLASH memory segment)
                0x080000ec                __init_load_start__ = ALIGN (__vectors_end__, 0x4)

.init           0x080000ec      0x1b0
                0x080000ec                __init_start__ = .
 *(.init .init.*)
 .init          0x080000ec      0x124 THUMB Debug/thumb_crt0.o
                0x080000ec                _start
                0x0800017c                exit
                0x080001a0                __getchar
                0x080001a0                __putchar
 .init          0x08000210       0x8c THUMB Debug/STM32_Startup.o
                0x08000210                NMI_Handler
                0x0800021a                SVC_Handler
                0x0800021c                DebugMon_Handler
                0x0800021e                PendSV_Handler
                0x08000222                WWDG_IRQHandler
                0x08000226                TAMPER_IRQHandler
                0x08000228                RTC_IRQHandler
                0x0800022a                FLASH_IRQHandler
                0x0800022c                RCC_IRQHandler
                0x0800022e                EXTI0_IRQHandler
                0x08000230                EXTI1_IRQHandler
                0x08000232                EXTI2_IRQHandler
                0x08000234                EXTI3_IRQHandler
                0x08000236                EXTI4_IRQHandler
                0x0800023a                DMA1_Channel2_IRQHandler
                0x0800023c                DMA1_Channel3_IRQHandler
                0x08000240                DMA1_Channel5_IRQHandler
                0x08000242                DMA1_Channel6_IRQHandler
                0x08000244                DMA1_Channel7_IRQHandler
                0x08000246                ADC1_2_IRQHandler
                0x0800024e                CAN1_SCE_IRQHandler
                0x08000250                EXTI9_5_IRQHandler
                0x08000252                TIM1_BRK_IRQHandler
                0x08000254                TIM1_UP_IRQHandler
                0x08000256                TIM1_TRG_COM_IRQHandler
                0x0800025c                TIM3_IRQHandler
                0x0800025e                TIM4_IRQHandler
                0x08000260                I2C1_EV_IRQHandler
                0x08000262                I2C1_ER_IRQHandler
                0x08000264                I2C2_EV_IRQHandler
                0x08000266                I2C2_ER_IRQHandler
                0x08000268                SPI1_IRQHandler
                0x0800026a                SPI2_IRQHandler
                0x0800026c                USART1_IRQHandler
                0x0800026e                USART2_IRQHandler
                0x08000270                USART3_IRQHandler
                0x08000272                EXTI15_10_IRQHandler
                0x08000274                RTCAlarm_IRQHandler
                0x08000276                USBWakeUp_IRQHandler
                0x08000278                reset_handler
                0x0800029c                __init_end__ = (__init_start__ + SIZEOF (.init))
                0x0800029c                __init_load_end__ = __init_end__
                0x00000001                . = ASSERT (((__init_end__ >= __FLASH_segment_start__) && (__init_end__ <= __FLASH_segment_end__)), error: .init is too large to fit in FLASH memory segment)
                0x0800029c                __text_load_start__ = ALIGN (__init_end__, 0x4)

.text           0x0800029c     0xd93c
                0x0800029c                __text_start__ = .
 *(.text .text.* .glue_7t .glue_7 .gnu.linkonce.t.* .gcc_except_table .ARM.extab* .gnu.linkonce.armextab.*)
 .glue_7        0x00000000        0x0 linker stubs
 .glue_7t       0x00000000        0x0 linker stubs
 .text.main     0x0800029c      0x1a0 THUMB Debug/main.o
                0x0800029c                main
 .text.assert_failed
                0x0800043c        0x4 THUMB Debug/main.o
                0x0800043c                assert_failed
 .text.HardFault_Handler
                0x08000440       0x48 THUMB Debug/main.o
                0x08000440                HardFault_Handler
 .text.MemManage_Handler
                0x08000488       0x48 THUMB Debug/main.o
                0x08000488                MemManage_Handler
 .text.BusFault_Handler
                0x080004d0       0x48 THUMB Debug/main.o
                0x080004d0                BusFault_Handler
 .text.UsageFault_Handler
                0x08000518       0x48 THUMB Debug/main.o
                0x08000518                UsageFault_Handler
 .text.fetCreateSine
                0x08000560       0xb4 THUMB Debug/fet.o
                0x08000560                fetCreateSine
 .text._fetSetServoDuty
                0x08000614       0x40 THUMB Debug/fet.o
                0x08000614                _fetSetServoDuty
 .text.fetUpdateServo
                0x08000654      0x284 THUMB Debug/fet.o
                0x08000654                fetUpdateServo
 .text.fetSetAngleFromPwm
                0x080008d8       0x48 THUMB Debug/fet.o
                0x080008d8                fetSetAngleFromPwm
 .text.fetSetAngle
                0x08000920       0x24 THUMB Debug/fet.o
                0x08000920                fetSetAngle
 .text.fetSetBraking
                0x08000944       0x60 THUMB Debug/fet.o
                0x08000944                fetSetBraking
 .text._fetSetDutyCycle
                0x080009a4       0x68 THUMB Debug/fet.o
                0x080009a4                _fetSetDutyCycle
 .text.fetSetDutyCycle
                0x08000a0c       0x20 THUMB Debug/fet.o
                0x08000a0c                fetSetDutyCycle
 .text.fetSetStep
                0x08000a2c       0xdc THUMB Debug/fet.o
                0x08000a2c                fetSetStep
 .text.fetMissedCommutate
                0x08000b08       0x3c THUMB Debug/fet.o
                0x08000b08                fetMissedCommutate
 .text.fetBeep  0x08000b44       0x80 THUMB Debug/fet.o
                0x08000b44                fetBeep
 .text.fetSetBaseTime
                0x08000bc4       0x64 THUMB Debug/fet.o
                0x08000bc4                fetSetBaseTime
 .text.fetCommutate
                0x08000c28       0xe0 THUMB Debug/fet.o
                0x08000c28                fetCommutate
 .text.motorStartSeqInit
                0x08000d08       0x48 THUMB Debug/fet.o
                0x08000d08                motorStartSeqInit
 .text.fetStartCommutation
                0x08000d50       0xd8 THUMB Debug/fet.o
                0x08000d50                fetStartCommutation
 .text.motorStartSeq
                0x08000e28      0x230 THUMB Debug/fet.o
                0x08000e28                motorStartSeq
 .text.fetSetConstants
                0x08001058      0x1f0 THUMB Debug/fet.o
                0x08001058                fetSetConstants
 .text.fetInit  0x08001248      0x208 THUMB Debug/fet.o
                0x08001248                fetInit
 .text.digitalInit
                0x08001450       0x3c THUMB Debug/digital.o
                0x08001450                digitalInit
 .text.digitalTogg
                0x0800148c       0x10 THUMB Debug/digital.o
                0x0800148c                digitalTogg
 .text.rccReadBkpDr
                0x0800149c       0x1c THUMB Debug/rcc.o
                0x0800149c                rccReadBkpDr
 .text.rccWriteBkpDr
                0x080014b8       0x3c THUMB Debug/rcc.o
                0x080014b8                rccWriteBkpDr
 .text.rccBootLoader
                0x080014f4       0x70 THUMB Debug/rcc.o
                0x080014f4                rccBootLoader
 .text.rccReset
                0x08001564       0x24 THUMB Debug/rcc.o
                0x08001564                rccReset
 .text.rccInit  0x08001588      0x12c THUMB Debug/rcc.o
                0x08001588                rccInit
 .text.adcCalibrateADC
                0x080016b4       0x24 THUMB Debug/adc.o
                0x080016b4                adcCalibrateADC
 .text.adcSetCrossingPeriod
                0x080016d8       0x1c THUMB Debug/adc.o
                0x080016d8                adcSetCrossingPeriod
 .text.DMA1_Channel1_IRQHandler
                0x080016f4      0x608 THUMB Debug/adc.o
                0x080016f4                DMA1_Channel1_IRQHandler
 .text.adcSetConstants
                0x08001cfc      0x1ec THUMB Debug/adc.o
                0x08001cfc                adcSetConstants
 .text.adcInit  0x08001ee8      0x288 THUMB Debug/adc.o
                0x08001ee8                adcInit
 .text.serialStartTxDMA
                0x08002170       0x68 THUMB Debug/serial.o
                0x08002170                serialStartTxDMA
 .text.serialWrite
                0x080021d8       0x3c THUMB Debug/serial.o
                0x080021d8                serialWrite
 .text.serialAvailable
                0x08002214       0x1c THUMB Debug/serial.o
                0x08002214                serialAvailable
 .text.serialRead
                0x08002230       0x2c THUMB Debug/serial.o
                0x08002230                serialRead
 .text.serialPrint
                0x0800225c       0x18 THUMB Debug/serial.o
                0x0800225c                serialPrint
 .text.serialOpenPort
                0x08002274       0x34 THUMB Debug/serial.o
                0x08002274                serialOpenPort
 .text.serialInit
                0x080022a8      0x15c THUMB Debug/serial.o
                0x080022a8                serialInit
 .text.DMA1_Channel4_IRQHandler
                0x08002404       0x30 THUMB Debug/serial.o
                0x08002404                DMA1_Channel4_IRQHandler
 .text.serialSetConstants
                0x08002434       0x6c THUMB Debug/serial.o
                0x08002434                serialSetConstants
 .text.pwmIsrAllOff
                0x080024a0       0x1c THUMB Debug/pwm.o
                0x080024a0                pwmIsrAllOff
 .text.pwmIsrAllOn
                0x080024bc       0x18 THUMB Debug/pwm.o
                0x080024bc                pwmIsrAllOn
 .text.pwmIsrRunOn
                0x080024d4       0x24 THUMB Debug/pwm.o
                0x080024d4                pwmIsrRunOn
 .text.TIM1_CC_IRQHandler
                0x080024f8       0xc0 THUMB Debug/pwm.o
                0x080024f8                TIM1_CC_IRQHandler
 .text.pwmSetConstants
                0x080025b8      0x108 THUMB Debug/pwm.o
                0x080025b8                pwmSetConstants
 .text.pwmInit  0x080026c0       0xd0 THUMB Debug/pwm.o
                0x080026c0                pwmInit
 .text.timerGetMicros
                0x08002790       0x4c THUMB Debug/timer.o
                0x08002790                timerGetMicros
 .text.timerDelay
                0x080027dc       0x2c THUMB Debug/timer.o
                0x080027dc                timerDelay
 .text.timerCancelAlarm1
                0x08002808       0x24 THUMB Debug/timer.o
                0x08002808                timerCancelAlarm1
 .text.timerCancelAlarm2
                0x0800282c       0x24 THUMB Debug/timer.o
                0x0800282c                timerCancelAlarm2
 .text.timerCancelAlarm3
                0x08002850       0x24 THUMB Debug/timer.o
                0x08002850                timerCancelAlarm3
 .text.timerInit
                0x08002874       0xc0 THUMB Debug/timer.o
                0x08002874                timerInit
 .text.timerSetAlarm1
                0x08002934       0x50 THUMB Debug/timer.o
                0x08002934                timerSetAlarm1
 .text.timerSetAlarm2
                0x08002984       0x50 THUMB Debug/timer.o
                0x08002984                timerSetAlarm2
 .text.timerSetAlarm3
                0x080029d4       0x50 THUMB Debug/timer.o
                0x080029d4                timerSetAlarm3
 .text.TIM2_IRQHandler
                0x08002a24       0xb0 THUMB Debug/timer.o
                0x08002a24                TIM2_IRQHandler
 .text.runFeedIWDG
                0x08002ad4        0x4 THUMB Debug/run.o
                0x08002ad4                runFeedIWDG
 .text.runIWDGInit
                0x08002ad8        0x8 THUMB Debug/run.o
                0x08002ad8                runIWDGInit
 .text.runDisarm
                0x08002ae0       0x50 THUMB Debug/run.o
                0x08002ae0                runDisarm
 .text.runArm   0x08002b30       0xbc THUMB Debug/run.o
                0x08002b30                runArm
 .text.runStop  0x08002bec       0x18 THUMB Debug/run.o
                0x08002bec                runStop
 .text.runDuty  0x08002c04       0x6c THUMB Debug/run.o
                0x08002c04                runDuty
 .text.runRpmPIDReset
                0x08002c70       0x10 THUMB Debug/run.o
                0x08002c70                runRpmPIDReset
 .text.runStart
                0x08002c80       0x60 THUMB Debug/run.o
                0x08002c80                runStart
 .text.runNewInput
                0x08002ce0      0x2d4 THUMB Debug/run.o
                0x08002ce0                runNewInput
 .text.runSetpoint
                0x08002fb4      0x14c THUMB Debug/run.o
                0x08002fb4                runSetpoint
 .text.runSetupPVD
                0x08003100       0x50 THUMB Debug/run.o
                0x08003100                runSetupPVD
 .text.SysTick_Handler
                0x08003150      0x950 THUMB Debug/run.o
                0x08003150                SysTick_Handler
 .text.PVD_IRQHandler
                0x08003aa0       0x40 THUMB Debug/run.o
                0x08003aa0                PVD_IRQHandler
 .text.runSetConstants
                0x08003ae0      0x14c THUMB Debug/run.o
                0x08003ae0                runSetConstants
 .text.runInit  0x08003c2c       0x74 THUMB Debug/run.o
                0x08003c2c                runInit
 .text.cliFuncBinary
                0x08003ca0       0x50 THUMB Debug/cli.o
                0x08003ca0                cliFuncBinary
 .text.cliFuncVer
                0x08003cf0       0x28 THUMB Debug/cli.o
                0x08003cf0                cliFuncVer
 .text.cliFuncStatus
                0x08003d18      0x298 THUMB Debug/cli.o
                0x08003d18                cliFuncStatus
 .text.cliFuncHelp
                0x08003fb0       0x48 THUMB Debug/cli.o
                0x08003fb0                cliFuncHelp
 .text.cliCommandComp
                0x08003ff8       0x18 THUMB Debug/cli.o
                0x08003ff8                cliCommandComp
 .text.cliFuncStart
                0x08004010       0x50 THUMB Debug/cli.o
                0x08004010                cliFuncStart
 .text.cliFuncBoot
                0x08004060       0x3c THUMB Debug/cli.o
                0x08004060                cliFuncBoot
 .text.cliUsage
                0x0800409c       0x34 THUMB Debug/cli.o
                0x0800409c                cliUsage
 .text.cliFuncTelemetry
                0x080040d0       0x84 THUMB Debug/cli.o
                0x080040d0                cliFuncTelemetry
 .text.cliFuncRpm
                0x08004154       0xf0 THUMB Debug/cli.o
                0x08004154                cliFuncRpm
 .text.cliFuncPwm
                0x08004244       0xd8 THUMB Debug/cli.o
                0x08004244                cliFuncPwm
 .text.cliFuncPos
                0x0800431c       0x90 THUMB Debug/cli.o
                0x0800431c                cliFuncPos
 .text.cliFuncDuty
                0x080043ac       0xb4 THUMB Debug/cli.o
                0x080043ac                cliFuncDuty
 .text.cliFuncConfig
                0x08004460       0xc4 THUMB Debug/cli.o
                0x08004460                cliFuncConfig
 .text.cliFuncBeep
                0x08004524       0x8c THUMB Debug/cli.o
                0x08004524                cliFuncBeep
 .text.cliFuncChangeInput
                0x080045b0       0x48 THUMB Debug/cli.o
                0x080045b0                cliFuncChangeInput
 .text.cliFuncStop
                0x080045f8       0x40 THUMB Debug/cli.o
                0x080045f8                cliFuncStop
 .text.cliFuncDisarm
                0x08004638       0x24 THUMB Debug/cli.o
                0x08004638                cliFuncDisarm
 .text.cliFuncMode
                0x0800465c       0xa4 THUMB Debug/cli.o
                0x0800465c                cliFuncMode
 .text.cliFuncInput
                0x08004700       0x70 THUMB Debug/cli.o
                0x08004700                cliFuncInput
 .text.cliFuncArm
                0x08004770       0x48 THUMB Debug/cli.o
                0x08004770                cliFuncArm
 .text.cliPrintParam
                0x080047b8       0x68 THUMB Debug/cli.o
                0x080047b8                cliPrintParam
 .text.cliFuncSet
                0x08004820       0xdc THUMB Debug/cli.o
                0x08004820                cliFuncSet
 .text.cliCommandGet
                0x080048fc       0x34 THUMB Debug/cli.o
                0x080048fc                cliCommandGet
 .text.cliTabComplete
                0x08004930       0x64 THUMB Debug/cli.o
                0x08004930                cliTabComplete
 .text.cliPrompt
                0x08004994       0x34 THUMB Debug/cli.o
                0x08004994                cliPrompt
 .text.cliCheck
                0x080049c8      0x26c THUMB Debug/cli.o
                0x080049c8                cliCheck
 .text.cliInit  0x08004c34       0x5c THUMB Debug/cli.o
                0x08004c34                cliInit
 .text.configRecalcConst
                0x08004c90       0x20 THUMB Debug/config.o
                0x08004c90                configRecalcConst
 .text.configSetParamByID
                0x08004cb0       0x28 THUMB Debug/config.o
                0x08004cb0                configSetParamByID
 .text.configGetId
                0x08004cd8       0x34 THUMB Debug/config.o
                0x08004cd8                configGetId
 .text.configLoadDefault
                0x08004d0c      0x17c THUMB Debug/config.o
                0x08004d0c                configLoadDefault
 .text.configWriteFlash
                0x08004e88       0xb8 THUMB Debug/config.o
                0x08004e88                configWriteFlash
 .text.configReadFlash
                0x08004f40       0x24 THUMB Debug/config.o
                0x08004f40                configReadFlash
 .text.configInit
                0x08004f64       0x4c THUMB Debug/config.o
                0x08004f64                configInit
 .text.binaryGetChar
                0x08004fb0       0x2c THUMB Debug/binary.o
                0x08004fb0                binaryGetChar
 .text.binarySendChar
                0x08004fdc       0x28 THUMB Debug/binary.o
                0x08004fdc                binarySendChar
 .text.binarySendFloat
                0x08005004       0x20 THUMB Debug/binary.o
                0x08005004                binarySendFloat
 .text.binarySendShort
                0x08005024       0x1c THUMB Debug/binary.o
                0x08005024                binarySendShort
 .text.binaryProcessAck
                0x08005040       0x98 THUMB Debug/binary.o
                0x08005040                binaryProcessAck
 .text.binaryTelemSend
                0x080050d8       0x90 THUMB Debug/binary.o
                0x080050d8                binaryTelemSend
 .text.binaryAck
                0x08005168       0x1c THUMB Debug/binary.o
                0x08005168                binaryAck
 .text.binaryNack
                0x08005184       0x1c THUMB Debug/binary.o
                0x08005184                binaryNack
 .text.binaryCommandParse
                0x080051a0      0x370 THUMB Debug/binary.o
                0x080051a0                binaryCommandParse
 .text.binaryCommandRead
                0x08005510       0xe0 THUMB Debug/binary.o
                0x08005510                binaryCommandRead
 .text.binaryCheck
                0x080055f0      0x244 THUMB Debug/binary.o
                0x080055f0                binaryCheck
 .text.owCRC    0x08005834       0x30 THUMB Debug/ow.o
                0x08005834                owCRC
 .text.owInit   0x08005864       0x60 THUMB Debug/ow.o
                0x08005864                owInit
 .text.owPullLow
                0x080058c4       0x20 THUMB Debug/ow.o
                0x080058c4                owPullLow
 .text.owRelease
                0x080058e4       0x20 THUMB Debug/ow.o
                0x080058e4                owRelease
 .text.owTimeoutIsr
                0x08005904       0x30 THUMB Debug/ow.o
                0x08005904                owTimeoutIsr
 .text.owTimeout
                0x08005934       0x1c THUMB Debug/ow.o
                0x08005934                owTimeout
 .text.owReadBytes
                0x08005950       0x30 THUMB Debug/ow.o
                0x08005950                owReadBytes
 .text.owResetIsr
                0x08005980       0x98 THUMB Debug/ow.o
                0x08005980                owResetIsr
 .text.owReset  0x08005a18       0x1c THUMB Debug/ow.o
                0x08005a18                owReset
 .text.owWriteBytes
                0x08005a34       0x3c THUMB Debug/ow.o
                0x08005a34                owWriteBytes
 .text.owReadComplete
                0x08005a70      0x390 THUMB Debug/ow.o
                0x08005a70                owReadComplete
 .text.owWriteComplete
                0x08005e00       0x10 THUMB Debug/ow.o
                0x08005e00                owWriteComplete
 .text.owByteReceived
                0x08005e10       0x48 THUMB Debug/ow.o
                0x08005e10                owByteReceived
 .text.owReadBitIsr
                0x08005e58       0x4c THUMB Debug/ow.o
                0x08005e58                owReadBitIsr
 .text.owByteSent
                0x08005ea4       0x40 THUMB Debug/ow.o
                0x08005ea4                owByteSent
 .text.owWriteBitIsr
                0x08005ee4       0x84 THUMB Debug/ow.o
                0x08005ee4                owWriteBitIsr
 .text.owEdgeDetect
                0x08005f68       0x4c THUMB Debug/ow.o
                0x08005f68                owEdgeDetect
 .text.canSend  0x08005fb4       0xd8 THUMB Debug/can.o
 .text.canNack  0x0800608c       0x1c THUMB Debug/can.o
 .text.canAck   0x080060a8       0x1c THUMB Debug/can.o
 .text.canSendStatus
                0x080060c4       0xfc THUMB Debug/can.o
                0x080060c4                canSendStatus
 .text.canTelemDo
                0x080061c0       0x24 THUMB Debug/can.o
                0x080061c0                canTelemDo
 .text.canProcess
                0x080061e4      0x8d0 THUMB Debug/can.o
                0x080061e4                canProcess
 .text.canInit  0x08006ab4      0x1bc THUMB Debug/can.o
                0x08006ab4                canInit
 .text.USB_LP_CAN1_RX0_IRQHandler
                0x08006c70        0x4 THUMB Debug/can.o
                0x08006c70                USB_LP_CAN1_RX0_IRQHandler
 .text.canSetConstants
                0x08006c74        0x4 THUMB Debug/can.o
                0x08006c74                canSetConstants
 .text.CAN1_RX1_IRQHandler
                0x08006c78        0x4 THUMB Debug/can.o
                0x08006c78                CAN1_RX1_IRQHandler
 .text.USB_HP_CAN1_TX_IRQHandler
                0x08006c7c        0x4 THUMB Debug/can.o
                0x08006c7c                USB_HP_CAN1_TX_IRQHandler
 .text.XXH32    0x08006c80      0x4f4 THUMB Debug/xxhash.o
                0x08006c80                XXH32
 .text.getBuildNumber
                0x08007174        0x8 THUMB Debug/getbuildnum.o
                0x08007174                getBuildNumber
 .text.GPIO_Init
                0x0800717c      0x184 THUMB Debug/stm32f10x_gpio.o
                0x0800717c                GPIO_Init
 .text.GPIO_PinRemapConfig
                0x08007300      0x2a4 THUMB Debug/stm32f10x_gpio.o
                0x08007300                GPIO_PinRemapConfig
 .text.RCC_HSICmd
                0x080075a4       0x24 THUMB Debug/stm32f10x_rcc.o
                0x080075a4                RCC_HSICmd
 .text.RCC_ADCCLKConfig
                0x080075c8       0x3c THUMB Debug/stm32f10x_rcc.o
                0x080075c8                RCC_ADCCLKConfig
 .text.RCC_GetClocksFreq
                0x08007604       0xe8 THUMB Debug/stm32f10x_rcc.o
                0x08007604                RCC_GetClocksFreq
 .text.RCC_AHBPeriphClockCmd
                0x080076ec       0x5c THUMB Debug/stm32f10x_rcc.o
                0x080076ec                RCC_AHBPeriphClockCmd
 .text.RCC_APB2PeriphClockCmd
                0x08007748       0x5c THUMB Debug/stm32f10x_rcc.o
                0x08007748                RCC_APB2PeriphClockCmd
 .text.RCC_APB1PeriphClockCmd
                0x080077a4       0x5c THUMB Debug/stm32f10x_rcc.o
                0x080077a4                RCC_APB1PeriphClockCmd
 .text.RCC_APB1PeriphResetCmd
                0x08007800       0x5c THUMB Debug/stm32f10x_rcc.o
                0x08007800                RCC_APB1PeriphResetCmd
 .text.RCC_GetFlagStatus
                0x0800785c       0x78 THUMB Debug/stm32f10x_rcc.o
                0x0800785c                RCC_GetFlagStatus
 .text.RCC_ClearFlag
                0x080078d4       0x14 THUMB Debug/stm32f10x_rcc.o
                0x080078d4                RCC_ClearFlag
 .text.SystemInit
                0x080078e8      0x130 THUMB Debug/system_stm32f10x.o
                0x080078e8                SystemInit
 .text.TI1_Config
                0x08007a18       0x90 THUMB Debug/stm32f10x_tim.o
 .text.TI2_Config
                0x08007aa8       0x94 THUMB Debug/stm32f10x_tim.o
 .text.TIM_TimeBaseInit
                0x08007b3c      0x1f0 THUMB Debug/stm32f10x_tim.o
                0x08007b3c                TIM_TimeBaseInit
 .text.TIM_OC1Init
                0x08007d2c      0x234 THUMB Debug/stm32f10x_tim.o
                0x08007d2c                TIM_OC1Init
 .text.TIM_OC2Init
                0x08007f60      0x1d8 THUMB Debug/stm32f10x_tim.o
                0x08007f60                TIM_OC2Init
 .text.TIM_OC3Init
                0x08008138      0x1b0 THUMB Debug/stm32f10x_tim.o
                0x08008138                TIM_OC3Init
 .text.TIM_OC4Init
                0x080082e8      0x14c THUMB Debug/stm32f10x_tim.o
                0x080082e8                TIM_OC4Init
 .text.TIM_TimeBaseStructInit
                0x08008434       0x14 THUMB Debug/stm32f10x_tim.o
                0x08008434                TIM_TimeBaseStructInit
 .text.TIM_OCStructInit
                0x08008448       0x18 THUMB Debug/stm32f10x_tim.o
                0x08008448                TIM_OCStructInit
 .text.TIM_Cmd  0x08008460      0x110 THUMB Debug/stm32f10x_tim.o
                0x08008460                TIM_Cmd
 .text.TIM_SelectInputTrigger
                0x08008570       0xc0 THUMB Debug/stm32f10x_tim.o
                0x08008570                TIM_SelectInputTrigger
 .text.TIM_ARRPreloadConfig
                0x08008630      0x110 THUMB Debug/stm32f10x_tim.o
                0x08008630                TIM_ARRPreloadConfig
 .text.TIM_OC1PreloadConfig
                0x08008740       0xf0 THUMB Debug/stm32f10x_tim.o
                0x08008740                TIM_OC1PreloadConfig
 .text.TIM_OC2PreloadConfig
                0x08008830       0xac THUMB Debug/stm32f10x_tim.o
                0x08008830                TIM_OC2PreloadConfig
 .text.TIM_OC3PreloadConfig
                0x080088dc       0x84 THUMB Debug/stm32f10x_tim.o
                0x080088dc                TIM_OC3PreloadConfig
 .text.TIM_OC4PreloadConfig
                0x08008960       0x88 THUMB Debug/stm32f10x_tim.o
                0x08008960                TIM_OC4PreloadConfig
 .text.TIM_SelectSlaveMode
                0x080089e8       0xb0 THUMB Debug/stm32f10x_tim.o
                0x080089e8                TIM_SelectSlaveMode
 .text.TIM_SelectMasterSlaveMode
                0x08008a98       0xac THUMB Debug/stm32f10x_tim.o
                0x08008a98                TIM_SelectMasterSlaveMode
 .text.TIM_SetIC1Prescaler
                0x08008b44       0xfc THUMB Debug/stm32f10x_tim.o
                0x08008b44                TIM_SetIC1Prescaler
 .text.TIM_SetIC2Prescaler
                0x08008c40       0xb8 THUMB Debug/stm32f10x_tim.o
                0x08008c40                TIM_SetIC2Prescaler
 .text.TIM_PWMIConfig
                0x08008cf8       0xe0 THUMB Debug/stm32f10x_tim.o
                0x08008cf8                TIM_PWMIConfig
 .text.TIM_GetITStatus
                0x08008dd8      0x128 THUMB Debug/stm32f10x_tim.o
                0x08008dd8                TIM_GetITStatus
 .text.TIM_ClearITPendingBit
                0x08008f00      0x100 THUMB Debug/stm32f10x_tim.o
                0x08008f00                TIM_ClearITPendingBit
 .text.DBGMCU_Config
                0x08009000       0x5c THUMB Debug/stm32f10x_dbgmcu.o
                0x08009000                DBGMCU_Config
 .text.ADC_Init
                0x0800905c      0x16c THUMB Debug/stm32f10x_adc.o
                0x0800905c                ADC_Init
 .text.ADC_Cmd  0x080091c8       0x64 THUMB Debug/stm32f10x_adc.o
                0x080091c8                ADC_Cmd
 .text.ADC_DMACmd
                0x0800922c       0x58 THUMB Debug/stm32f10x_adc.o
                0x0800922c                ADC_DMACmd
 .text.ADC_ResetCalibration
                0x08009284       0x44 THUMB Debug/stm32f10x_adc.o
                0x08009284                ADC_ResetCalibration
 .text.ADC_GetResetCalibrationStatus
                0x080092c8       0x40 THUMB Debug/stm32f10x_adc.o
                0x080092c8                ADC_GetResetCalibrationStatus
 .text.ADC_StartCalibration
                0x08009308       0x44 THUMB Debug/stm32f10x_adc.o
                0x08009308                ADC_StartCalibration
 .text.ADC_GetCalibrationStatus
                0x0800934c       0x40 THUMB Debug/stm32f10x_adc.o
                0x0800934c                ADC_GetCalibrationStatus
 .text.ADC_SoftwareStartConvCmd
                0x0800938c       0x64 THUMB Debug/stm32f10x_adc.o
                0x0800938c                ADC_SoftwareStartConvCmd
 .text.ADC_RegularChannelConfig
                0x080093f0      0x130 THUMB Debug/stm32f10x_adc.o
                0x080093f0                ADC_RegularChannelConfig
 .text.ADC_ExternalTrigConvCmd
                0x08009520       0x64 THUMB Debug/stm32f10x_adc.o
                0x08009520                ADC_ExternalTrigConvCmd
 .text.ADC_ExternalTrigInjectedConvConfig
                0x08009584       0x84 THUMB Debug/stm32f10x_adc.o
                0x08009584                ADC_ExternalTrigInjectedConvConfig
 .text.ADC_ExternalTrigInjectedConvCmd
                0x08009608       0x64 THUMB Debug/stm32f10x_adc.o
                0x08009608                ADC_ExternalTrigInjectedConvCmd
 .text.ADC_InjectedChannelConfig
                0x0800966c       0xec THUMB Debug/stm32f10x_adc.o
                0x0800966c                ADC_InjectedChannelConfig
 .text.ADC_InjectedSequencerLengthConfig
                0x08009758       0x68 THUMB Debug/stm32f10x_adc.o
                0x08009758                ADC_InjectedSequencerLengthConfig
 .text.DMA_DeInit
                0x080097c0      0x254 THUMB Debug/stm32f10x_dma.o
                0x080097c0                DMA_DeInit
 .text.DMA_Init
                0x08009a14      0x1e0 THUMB Debug/stm32f10x_dma.o
                0x08009a14                DMA_Init
 .text.DMA_Cmd  0x08009bf4       0xd4 THUMB Debug/stm32f10x_dma.o
                0x08009bf4                DMA_Cmd
 .text.DMA_ITConfig
                0x08009cc8       0xe8 THUMB Debug/stm32f10x_dma.o
                0x08009cc8                DMA_ITConfig
 .text.DMA_GetCurrDataCounter
                0x08009db0       0xac THUMB Debug/stm32f10x_dma.o
                0x08009db0                DMA_GetCurrDataCounter
 .text.DMA_ClearITPendingBit
                0x08009e5c       0x3c THUMB Debug/stm32f10x_dma.o
                0x08009e5c                DMA_ClearITPendingBit
 .text.NVIC_Init
                0x08009e98       0xc8 THUMB Debug/misc.o
                0x08009e98                NVIC_Init
 .text.USART_Init
                0x08009f60      0x240 THUMB Debug/stm32f10x_usart.o
                0x08009f60                USART_Init
 .text.USART_Cmd
                0x0800a1a0       0x88 THUMB Debug/stm32f10x_usart.o
                0x0800a1a0                USART_Cmd
 .text.USART_DMACmd
                0x0800a228       0x9c THUMB Debug/stm32f10x_usart.o
                0x0800a228                USART_DMACmd
 .text.EXTI_Init
                0x0800a2c4       0xf8 THUMB Debug/stm32f10x_exti.o
                0x0800a2c4                EXTI_Init
 .text.EXTI_GetITStatus
                0x0800a3bc       0x9c THUMB Debug/stm32f10x_exti.o
                0x0800a3bc                EXTI_GetITStatus
 .text.EXTI_ClearITPendingBit
                0x0800a458       0x28 THUMB Debug/stm32f10x_exti.o
                0x0800a458                EXTI_ClearITPendingBit
 .text.PWR_PVDCmd
                0x0800a480       0x24 THUMB Debug/stm32f10x_pwr.o
                0x0800a480                PWR_PVDCmd
 .text.PWR_PVDLevelConfig
                0x0800a4a4       0x48 THUMB Debug/stm32f10x_pwr.o
                0x0800a4a4                PWR_PVDLevelConfig
 .text.FLASH_Unlock
                0x0800a4ec       0x20 THUMB Debug/stm32f10x_flash.o
                0x0800a4ec                FLASH_Unlock
 .text.FLASH_Lock
                0x0800a50c       0x14 THUMB Debug/stm32f10x_flash.o
                0x0800a50c                FLASH_Lock
 .text.FLASH_ClearFlag
                0x0800a520       0x28 THUMB Debug/stm32f10x_flash.o
                0x0800a520                FLASH_ClearFlag
 .text.FLASH_GetBank1Status
                0x0800a548       0x44 THUMB Debug/stm32f10x_flash.o
                0x0800a548                FLASH_GetBank1Status
 .text.FLASH_WaitForLastOperation
                0x0800a58c       0x34 THUMB Debug/stm32f10x_flash.o
                0x0800a58c                FLASH_WaitForLastOperation
 .text.FLASH_ProgramWord
                0x0800a5c0       0x9c THUMB Debug/stm32f10x_flash.o
                0x0800a5c0                FLASH_ProgramWord
 .text.FLASH_ErasePage
                0x0800a65c       0x60 THUMB Debug/stm32f10x_flash.o
                0x0800a65c                FLASH_ErasePage
 .text.CAN_DeInit
                0x0800a6bc       0x64 THUMB Debug/stm32f10x_can.o
                0x0800a6bc                CAN_DeInit
 .text.CAN_Init
                0x0800a720      0x21c THUMB Debug/stm32f10x_can.o
                0x0800a720                CAN_Init
 .text.CAN_FilterInit
                0x0800a93c      0x19c THUMB Debug/stm32f10x_can.o
                0x0800a93c                CAN_FilterInit
 .text.CAN_StructInit
                0x0800aad8       0x28 THUMB Debug/stm32f10x_can.o
                0x0800aad8                CAN_StructInit
 .text.CAN_Receive
                0x0800ab00      0x100 THUMB Debug/stm32f10x_can.o
                0x0800ab00                CAN_Receive
 .text.CAN_MessagePending
                0x0800ac00       0x5c THUMB Debug/stm32f10x_can.o
                0x0800ac00                CAN_MessagePending
 .text.libc.__int32_to_float32
                0x0800ac5c       0x30 C:/Program Files (x86)/Rowley Associates Limited/CrossWorks for ARM 2.3/lib/libm_v7m_t_le.a(libm_asm.o)
                0x0800ac5c                __int32_to_float32
                0x0800ac5c                __floatsisf
                0x0800ac5c                __aeabi_i2f
                0x0800ac6c                __int32_to_float32_common
 .text.libc.__int32_to_float64
                0x0800ac8c       0x30 C:/Program Files (x86)/Rowley Associates Limited/CrossWorks for ARM 2.3/lib/libm_v7m_t_le.a(libm_asm.o)
                0x0800ac8c                __aeabi_i2d
                0x0800ac8c                __int32_to_float64
                0x0800ac8c                __floatsidf
 .text.libc.__uint32_to_float32
                0x0800acbc       0x10 C:/Program Files (x86)/Rowley Associates Limited/CrossWorks for ARM 2.3/lib/libm_v7m_t_le.a(libm_asm.o)
                0x0800acbc                __aeabi_ui2f
                0x0800acbc                __floatunsisf
                0x0800acbc                __uint32_to_float32
 .text.libc.__int64_to_float64
                0x0800accc       0xa0 C:/Program Files (x86)/Rowley Associates Limited/CrossWorks for ARM 2.3/lib/libm_v7m_t_le.a(libm_asm.o)
                0x0800accc                __int64_to_float64
                0x0800accc                __aeabi_l2d
                0x0800accc                __floatdidf
                0x0800acee                __RAL_aeabi_l2d_common
 .text.libc.__uint64_to_float64
                0x0800ad6c       0x14 C:/Program Files (x86)/Rowley Associates Limited/CrossWorks for ARM 2.3/lib/libm_v7m_t_le.a(libm_asm.o)
                0x0800ad6c                __aeabi_ul2d
                0x0800ad6c                __floatundidf
                0x0800ad6c                __uint64_to_float64
 .text.libc.__float32_to_int32
                0x0800ad80       0x40 C:/Program Files (x86)/Rowley Associates Limited/CrossWorks for ARM 2.3/lib/libm_v7m_t_le.a(libm_asm.o)
                0x0800ad80                __float32_to_int32
                0x0800ad80                __aeabi_f2iz
                0x0800ad80                __fixsfsi
 .text.libc.__float32_to_uint32
                0x0800adc0       0x24 C:/Program Files (x86)/Rowley Associates Limited/CrossWorks for ARM 2.3/lib/libm_v7m_t_le.a(libm_asm.o)
                0x0800adc0                __aeabi_f2uiz
                0x0800adc0                __fixunssfsi
                0x0800adc0                __float32_to_uint32
 .text.libc.__float64_to_uint64
                0x0800ade4       0x48 C:/Program Files (x86)/Rowley Associates Limited/CrossWorks for ARM 2.3/lib/libm_v7m_t_le.a(libm_asm.o)
                0x0800ade4                __fixunsdfdi
                0x0800ade4                __float64_to_uint64
                0x0800ade4                __aeabi_d2ulz
 .text.libc.__float32_to_float64
                0x0800ae2c       0x38 C:/Program Files (x86)/Rowley Associates Limited/CrossWorks for ARM 2.3/lib/libm_v7m_t_le.a(libm_asm.o)
                0x0800ae2c                __float32_to_float64
                0x0800ae2c                __aeabi_f2d
                0x0800ae2c                __extendsfdf2
 .text.libc.__float64_to_float32
                0x0800ae64       0x70 C:/Program Files (x86)/Rowley Associates Limited/CrossWorks for ARM 2.3/lib/libm_v7m_t_le.a(libm_asm.o)
                0x0800ae64                __truncdfsf2
                0x0800ae64                __float64_to_float32
                0x0800ae64                __aeabi_d2f
 .text.libc.__float32_add
                0x0800aed4      0x138 C:/Program Files (x86)/Rowley Associates Limited/CrossWorks for ARM 2.3/lib/libm_v7m_t_le.a(libm_asm.o)
                0x0800aed4                __aeabi_frsub
                0x0800aedc                __subsf3
                0x0800aedc                __aeabi_fsub
                0x0800aedc                __float32_sub
                0x0800aee0                __addsf3
                0x0800aee0                __float32_add
                0x0800aee0                __aeabi_fadd
 .text.libc.__float32_mul
                0x0800b00c       0xd4 C:/Program Files (x86)/Rowley Associates Limited/CrossWorks for ARM 2.3/lib/libm_v7m_t_le.a(libm_asm.o)
                0x0800b00c                __mulsf3
                0x0800b00c                __aeabi_fmul
                0x0800b00c                __float32_mul
 .text.libc.__float32_div
                0x0800b0e0      0x1e0 C:/Program Files (x86)/Rowley Associates Limited/CrossWorks for ARM 2.3/lib/libm_v7m_t_le.a(libm_asm.o)
                0x0800b0e0                __aeabi_fdiv
                0x0800b0e0                __float32_div
                0x0800b0e0                __divsf3
 .text.libc.__float32_cmp
                0x0800b2c0       0x44 C:/Program Files (x86)/Rowley Associates Limited/CrossWorks for ARM 2.3/lib/libm_v7m_t_le.a(libm_asm.o)
                0x0800b2c0                __nesf2
                0x0800b2c0                __gtsf2
                0x0800b2c0                __eqsf2
                0x0800b2c0                __cmpsf2
                0x0800b2c0                __ltsf2
                0x0800b2c0                __gesf2
                0x0800b2c0                __lesf2
 .text.libc.__float64_add
                0x0800b304      0x294 C:/Program Files (x86)/Rowley Associates Limited/CrossWorks for ARM 2.3/lib/libm_v7m_t_le.a(libm_asm.o)
                0x0800b304                __aeabi_drsub
                0x0800b30c                __aeabi_dsub
                0x0800b30c                __float64_sub
                0x0800b30c                __subdf3
                0x0800b310                __aeabi_dadd
                0x0800b310                __float64_add
                0x0800b310                __adddf3
 .text.libc.__float64_mul
                0x0800b598      0x16c C:/Program Files (x86)/Rowley Associates Limited/CrossWorks for ARM 2.3/lib/libm_v7m_t_le.a(libm_asm.o)
                0x0800b598                __float64_mul
                0x0800b598                __muldf3
                0x0800b598                __aeabi_dmul
 .text.libc.__float64_div
                0x0800b704      0x214 C:/Program Files (x86)/Rowley Associates Limited/CrossWorks for ARM 2.3/lib/libm_v7m_t_le.a(libm_asm.o)
                0x0800b704                __divdf3
                0x0800b704                __float64_div
                0x0800b704                __aeabi_ddiv
 .text.libc.__float64_cmp
                0x0800b918       0x64 C:/Program Files (x86)/Rowley Associates Limited/CrossWorks for ARM 2.3/lib/libm_v7m_t_le.a(libm_asm.o)
                0x0800b918                __eqdf2
                0x0800b918                __gtdf2
                0x0800b918                __ltdf2
                0x0800b918                __ledf2
                0x0800b918                __nedf2
                0x0800b918                __gedf2
                0x0800b918                __cmpdf2
 .text.libc.__float32_isinf
                0x0800b97c       0x10 C:/Program Files (x86)/Rowley Associates Limited/CrossWorks for ARM 2.3/lib/libm_v7m_t_le.a(libm_asm.o)
                0x0800b97c                __float32_isinf
 .text.libc.__float64_isinf
                0x0800b98c       0x10 C:/Program Files (x86)/Rowley Associates Limited/CrossWorks for ARM 2.3/lib/libm_v7m_t_le.a(libm_asm.o)
                0x0800b98c                __float64_isinf
 .text.libc.__float32_isnan
                0x0800b99c       0x10 C:/Program Files (x86)/Rowley Associates Limited/CrossWorks for ARM 2.3/lib/libm_v7m_t_le.a(libm_asm.o)
                0x0800b99c                __float32_isnan
 .text.libc.__float64_isnan
                0x0800b9ac       0x10 C:/Program Files (x86)/Rowley Associates Limited/CrossWorks for ARM 2.3/lib/libm_v7m_t_le.a(libm_asm.o)
                0x0800b9ac                __float64_isnan
 .text.libc.sqrtf.part.6
                0x0800b9bc       0x84 C:/Program Files (x86)/Rowley Associates Limited/CrossWorks for ARM 2.3/lib/libm_v7m_t_le.a(libm2.o)
 .text.libc.__sincosf
                0x0800ba40      0x140 C:/Program Files (x86)/Rowley Associates Limited/CrossWorks for ARM 2.3/lib/libm_v7m_t_le.a(libm2.o)
                0x0800ba40                __sincosf
 .text.libc.frexp
                0x0800bb80       0x48 C:/Program Files (x86)/Rowley Associates Limited/CrossWorks for ARM 2.3/lib/libm_v7m_t_le.a(libm2.o)
                0x0800bb80                frexp
 .text.libc.ldexp
                0x0800bbc8       0x64 C:/Program Files (x86)/Rowley Associates Limited/CrossWorks for ARM 2.3/lib/libm_v7m_t_le.a(libm2.o)
                0x0800bbc8                ldexp
 .text.libc.sinf
                0x0800bc2c       0x34 C:/Program Files (x86)/Rowley Associates Limited/CrossWorks for ARM 2.3/lib/libm_v7m_t_le.a(libm2.o)
                0x0800bc2c                sinf
 .text.libc.sqrtf
                0x0800bc60       0x3c C:/Program Files (x86)/Rowley Associates Limited/CrossWorks for ARM 2.3/lib/libm_v7m_t_le.a(libm2.o)
                0x0800bc60                sqrtf
 .text.libc.fabsf
                0x0800bc9c        0x8 C:/Program Files (x86)/Rowley Associates Limited/CrossWorks for ARM 2.3/lib/libm_v7m_t_le.a(libm2_asm.o)
                0x0800bc9c                fabsf
 .text.libc.ldexpf
                0x0800bca4       0x38 C:/Program Files (x86)/Rowley Associates Limited/CrossWorks for ARM 2.3/lib/libm_v7m_t_le.a(libm2_asm.o)
                0x0800bca4                ldexpf
 .text.libc.frexpf
                0x0800bcdc       0x2c C:/Program Files (x86)/Rowley Associates Limited/CrossWorks for ARM 2.3/lib/libm_v7m_t_le.a(libm2_asm.o)
                0x0800bcdc                frexpf
 .text.libc.__getc
                0x0800bd08       0x28 C:/Program Files (x86)/Rowley Associates Limited/CrossWorks for ARM 2.3/lib/libc_v7m_t_le.a(libc2.o)
                0x0800bd08                __getc
 .text.libc.__RAL_pow10
                0x0800bd30       0x74 C:/Program Files (x86)/Rowley Associates Limited/CrossWorks for ARM 2.3/lib/libc_v7m_t_le.a(libc2.o)
                0x0800bd30                __RAL_pow10
 .text.libc.__putc
                0x0800bda4       0x38 C:/Program Files (x86)/Rowley Associates Limited/CrossWorks for ARM 2.3/lib/libc_v7m_t_le.a(libc2.o)
                0x0800bda4                __putc
 .text.libc.__print_padding
                0x0800bddc       0x24 C:/Program Files (x86)/Rowley Associates Limited/CrossWorks for ARM 2.3/lib/libc_v7m_t_le.a(libc2.o)
                0x0800bddc                __print_padding
 .text.libc.__pre_padding
                0x0800be00       0x1c C:/Program Files (x86)/Rowley Associates Limited/CrossWorks for ARM 2.3/lib/libc_v7m_t_le.a(libc2.o)
                0x0800be00                __pre_padding
 .text.libc.abs
                0x0800be1c        0x8 C:/Program Files (x86)/Rowley Associates Limited/CrossWorks for ARM 2.3/lib/libc_v7m_t_le.a(libc2.o)
                0x0800be1c                abs
 .text.libc.bsearch
                0x0800be24       0x64 C:/Program Files (x86)/Rowley Associates Limited/CrossWorks for ARM 2.3/lib/libc_v7m_t_le.a(libc2.o)
                0x0800be24                bsearch
 .text.libc.isupper
                0x0800be88       0x10 C:/Program Files (x86)/Rowley Associates Limited/CrossWorks for ARM 2.3/lib/libc_v7m_t_le.a(libc2.o)
                0x0800be88                isupper
 .text.libc.islower
                0x0800be98       0x10 C:/Program Files (x86)/Rowley Associates Limited/CrossWorks for ARM 2.3/lib/libc_v7m_t_le.a(libc2.o)
                0x0800be98                islower
 .text.libc.isdigit
                0x0800bea8       0x10 C:/Program Files (x86)/Rowley Associates Limited/CrossWorks for ARM 2.3/lib/libc_v7m_t_le.a(libc2.o)
                0x0800bea8                isdigit
 .text.libc.__digit
                0x0800beb8       0x3c C:/Program Files (x86)/Rowley Associates Limited/CrossWorks for ARM 2.3/lib/libc_v7m_t_le.a(libc2.o)
                0x0800beb8                __digit
 .text.libc.isspace
                0x0800bef4       0x18 C:/Program Files (x86)/Rowley Associates Limited/CrossWorks for ARM 2.3/lib/libc_v7m_t_le.a(libc2.o)
                0x0800bef4                isspace
 .text.libc.tolower
                0x0800bf0c       0x10 C:/Program Files (x86)/Rowley Associates Limited/CrossWorks for ARM 2.3/lib/libc_v7m_t_le.a(libc2.o)
                0x0800bf0c                tolower
 .text.libc.malloc
                0x0800bf1c       0x90 C:/Program Files (x86)/Rowley Associates Limited/CrossWorks for ARM 2.3/lib/libc_v7m_t_le.a(libc2.o)
                0x0800bf1c                malloc
 .text.libc.calloc
                0x0800bfac       0x20 C:/Program Files (x86)/Rowley Associates Limited/CrossWorks for ARM 2.3/lib/libc_v7m_t_le.a(libc2.o)
                0x0800bfac                calloc
 .text.libc.memcmp
                0x0800bfcc       0x54 C:/Program Files (x86)/Rowley Associates Limited/CrossWorks for ARM 2.3/lib/libc_v7m_t_le.a(libc2.o)
                0x0800bfcc                memcmp
 .text.libc.sprintf
                0x0800c020       0x2c C:/Program Files (x86)/Rowley Associates Limited/CrossWorks for ARM 2.3/lib/libc_v7m_t_le.a(libc2.o)
                0x0800c020                sprintf
 .text.libc.sscanf
                0x0800c04c       0x28 C:/Program Files (x86)/Rowley Associates Limited/CrossWorks for ARM 2.3/lib/libc_v7m_t_le.a(libc2.o)
                0x0800c04c                sscanf
 .text.libc.strcasecmp
                0x0800c074       0x24 C:/Program Files (x86)/Rowley Associates Limited/CrossWorks for ARM 2.3/lib/libc_v7m_t_le.a(libc2.o)
                0x0800c074                strcasecmp
 .text.libc.strncasecmp
                0x0800c098       0x5c C:/Program Files (x86)/Rowley Associates Limited/CrossWorks for ARM 2.3/lib/libc_v7m_t_le.a(libc2.o)
                0x0800c098                strncasecmp
 .text.libc.memcpy
                0x0800c0f4       0x3c C:/Program Files (x86)/Rowley Associates Limited/CrossWorks for ARM 2.3/lib/libc_v7m_t_le.a(libc2_asm.o)
                0x0800c0f4                __aeabi_memcpy
                0x0800c0f4                __aeabi_memcpy4
                0x0800c0f4                __aeabi_memcpy8
                0x0800c0f4                memcpy
 .text.libc.memset
                0x0800c130       0x60 C:/Program Files (x86)/Rowley Associates Limited/CrossWorks for ARM 2.3/lib/libc_v7m_t_le.a(libc2_asm.o)
                0x0800c130                memset
 .text.libc.strlen
                0x0800c190       0x60 C:/Program Files (x86)/Rowley Associates Limited/CrossWorks for ARM 2.3/lib/libc_v7m_t_le.a(libc2_asm.o)
                0x0800c190                strlen
 .text.libc.__vfprintf_double_long_long
                0x0800c1f0     0x1088 C:/Program Files (x86)/Rowley Associates Limited/CrossWorks for ARM 2.3/lib/libc_v7m_t_le.a(__vfprintf_double_long_long.o)
                0x0800c1f0                __vfprintf_double_long_long
 .text.libc.__ungetc
                0x0800d278       0x20 C:/Program Files (x86)/Rowley Associates Limited/CrossWorks for ARM 2.3/lib/libc_v7m_t_le.a(__vfscanf_double_long_long.o)
 .text.libc.rd_int
                0x0800d298      0x188 C:/Program Files (x86)/Rowley Associates Limited/CrossWorks for ARM 2.3/lib/libc_v7m_t_le.a(__vfscanf_double_long_long.o)
 .text.libc.__vfscanf_double_long_long
                0x0800d420      0x6f8 C:/Program Files (x86)/Rowley Associates Limited/CrossWorks for ARM 2.3/lib/libc_v7m_t_le.a(__vfscanf_double_long_long.o)
                0x0800d420                __vfscanf_double_long_long
 .text.libc.__int64_umod
                0x0800db18        0xc C:/Program Files (x86)/Rowley Associates Limited/CrossWorks for ARM 2.3/lib/libc_v7m_t_le.a(libc_asm.o)
                0x0800db18                __umoddi3
                0x0800db18                __int64_umod
 .text.libc.__int64_udivmod
                0x0800db24       0x60 C:/Program Files (x86)/Rowley Associates Limited/CrossWorks for ARM 2.3/lib/libc_v7m_t_le.a(libc_asm.o)
                0x0800db24                __aeabi_uldivmod
                0x0800db24                __int64_udiv
                0x0800db24                __udivdi3
                0x0800db24                __int64_udivmod
 .text.libdebugio.__do_debug_operation_mempoll
                0x0800db84       0x38 C:/Program Files (x86)/Rowley Associates Limited/CrossWorks for ARM 2.3/lib/libdebugio_v7m_t_le.a(libdebugio.o)
                0x0800db84                __do_debug_operation_mempoll
 .text.libc.__errno
                0x0800dbbc        0xc C:/Program Files (x86)/Rowley Associates Limited/CrossWorks for ARM 2.3/lib/libc_user_libc_v7m_t_le.a(user_libc.o)
                0x0800dbbc                __errno
 .text.libc.__heap_lock
                0x0800dbc8        0x4 C:/Program Files (x86)/Rowley Associates Limited/CrossWorks for ARM 2.3/lib/libc_user_libc_v7m_t_le.a(user_libc.o)
                0x0800dbc8                __heap_lock
 .text.libc.__heap_unlock
                0x0800dbcc        0x4 C:/Program Files (x86)/Rowley Associates Limited/CrossWorks for ARM 2.3/lib/libc_user_libc_v7m_t_le.a(user_libc.o)
                0x0800dbcc                __heap_unlock
 .text.libc.__debug_io_lock
                0x0800dbd0        0x4 C:/Program Files (x86)/Rowley Associates Limited/CrossWorks for ARM 2.3/lib/libc_user_libc_v7m_t_le.a(user_libc.o)
                0x0800dbd0                __debug_io_lock
 .text.libc.__debug_io_unlock
                0x0800dbd4        0x4 C:/Program Files (x86)/Rowley Associates Limited/CrossWorks for ARM 2.3/lib/libc_user_libc_v7m_t_le.a(user_libc.o)
                0x0800dbd4                __debug_io_unlock
                0x0800dbd8                __text_end__ = (__text_start__ + SIZEOF (.text))
                0x0800dbd8                __text_load_end__ = __text_end__

.vfp11_veneer   0x00000000        0x0
 .vfp11_veneer  0x00000000        0x0 linker stubs

.v4_bx          0x00000000        0x0
 .v4_bx         0x00000000        0x0 linker stubs
                0x00000001                . = ASSERT (((__text_end__ >= __FLASH_segment_start__) && (__text_end__ <= __FLASH_segment_end__)), error: .text is too large to fit in FLASH memory segment)
                0x0800dbd8                __dtors_load_start__ = ALIGN (__text_end__, 0x4)

.dtors          0x0800dbd8        0x0
                0x0800dbd8                __dtors_start__ = .
 *(SORT(.dtors.*))
 *(.dtors)
 *(.fini_array .fini_array.*)
                0x0800dbd8                __dtors_end__ = (__dtors_start__ + SIZEOF (.dtors))
                0x0800dbd8                __dtors_load_end__ = __dtors_end__
                0x00000001                . = ASSERT (((__dtors_end__ >= __FLASH_segment_start__) && (__dtors_end__ <= __FLASH_segment_end__)), error: .dtors is too large to fit in FLASH memory segment)
                0x0800dbd8                __ctors_load_start__ = ALIGN (__dtors_end__, 0x4)

.ctors          0x0800dbd8        0x0
                0x0800dbd8                __ctors_start__ = .
 *(SORT(.ctors.*))
 *(.ctors)
 *(.init_array .init_array.*)
                0x0800dbd8                __ctors_end__ = (__ctors_start__ + SIZEOF (.ctors))
                0x0800dbd8                __ctors_load_end__ = __ctors_end__
                0x00000001                . = ASSERT (((__ctors_end__ >= __FLASH_segment_start__) && (__ctors_end__ <= __FLASH_segment_end__)), error: .ctors is too large to fit in FLASH memory segment)
                0x0800dbd8                __rodata_load_start__ = ALIGN (__ctors_end__, 0x4)

.rodata         0x0800dbd8     0x11b4
                0x0800dbd8                __rodata_start__ = .
 *(.rodata .rodata.* .gnu.linkonce.r.*)
 .rodata.cliCommandTable
                0x0800dbd8       0xe4 THUMB Debug/cli.o
                0x0800dbd8                cliCommandTable
 .rodata.cliClearEOS
                0x0800dcbc        0x4 THUMB Debug/cli.o
                0x0800dcbc                cliClearEOS
 .rodata.cliClear
                0x0800dcc0        0x8 THUMB Debug/cli.o
                0x0800dcc0                cliClear
 .rodata.str1.4
                0x0800dcc8      0x6b4 THUMB Debug/cli.o
                                0x6c0 (size before relaxing)
 .rodata.cliClearEOL
                0x0800e37c        0x4 THUMB Debug/cli.o
                0x0800e37c                cliClearEOL
 .rodata.cliHome
                0x0800e380        0x4 THUMB Debug/cli.o
                0x0800e380                cliHome
 .rodata.str1.4
                0x0800e384      0x322 THUMB Debug/config.o
                                0x340 (size before relaxing)
 *fill*         0x0800e6a6        0x2 00
 .rodata.str1.4
                0x0800e6a8        0x8 THUMB Debug/binary.o
 .rodata.str1.4
                0x00000000        0x8 THUMB Debug/can.o
 .rodata.one    0x0800e6b0        0x4 THUMB Debug/xxhash.o
 .rodata.str1.4
                0x0800e6b4       0x76 THUMB Debug/stm32f10x_gpio.o
                                 0x78 (size before relaxing)
 *fill*         0x0800e72a        0x2 00
 .rodata.str1.4
                0x0800e72c       0x75 THUMB Debug/stm32f10x_rcc.o
                                 0x78 (size before relaxing)
 *fill*         0x0800e7a1        0x3 00
 .rodata.str1.4
                0x0800e7a4       0x75 THUMB Debug/stm32f10x_tim.o
                                 0x78 (size before relaxing)
 *fill*         0x0800e819        0x3 00
 .rodata.str1.4
                0x0800e81c       0x78 THUMB Debug/stm32f10x_dbgmcu.o
 .rodata.str1.4
                0x0800e894       0x75 THUMB Debug/stm32f10x_adc.o
                                 0x78 (size before relaxing)
 *fill*         0x0800e909        0x3 00
 .rodata.str1.4
                0x0800e90c       0x75 THUMB Debug/stm32f10x_dma.o
                                 0x78 (size before relaxing)
 *fill*         0x0800e981        0x3 00
 .rodata.str1.4
                0x0800e984       0x6c THUMB Debug/misc.o
 .rodata.str1.4
                0x0800e9f0       0x77 THUMB Debug/stm32f10x_usart.o
                                 0x78 (size before relaxing)
 *fill*         0x0800ea67        0x1 00
 .rodata.str1.4
                0x0800ea68       0x76 THUMB Debug/stm32f10x_exti.o
                                 0x78 (size before relaxing)
 *fill*         0x0800eade        0x2 00
 .rodata.str1.4
                0x0800eae0       0x75 THUMB Debug/stm32f10x_pwr.o
                                 0x78 (size before relaxing)
 *fill*         0x0800eb55        0x3 00
 .rodata.str1.4
                0x0800eb58       0x77 THUMB Debug/stm32f10x_flash.o
                                 0x78 (size before relaxing)
 *fill*         0x0800ebcf        0x1 00
 .rodata.str1.4
                0x0800ebd0       0x75 THUMB Debug/stm32f10x_can.o
                                 0x78 (size before relaxing)
 *fill*         0x0800ec45        0x3 00
 .rodata.libc.__float32_infinity
                0x0800ec48        0x4 C:/Program Files (x86)/Rowley Associates Limited/CrossWorks for ARM 2.3/lib/libm_v7m_t_le.a(libm_asm.o)
                0x0800ec48                __float32_infinity
 .rodata.libc.__float64_infinity
                0x0800ec4c        0x8 C:/Program Files (x86)/Rowley Associates Limited/CrossWorks for ARM 2.3/lib/libm_v7m_t_le.a(libm_asm.o)
                0x0800ec4c                __float64_infinity
 .rodata.libc.__hex_lc
                0x0800ec54       0x10 C:/Program Files (x86)/Rowley Associates Limited/CrossWorks for ARM 2.3/lib/libc_v7m_t_le.a(libc2.o)
                0x0800ec54                __hex_lc
 .rodata.libc.power
                0x0800ec64       0x48 C:/Program Files (x86)/Rowley Associates Limited/CrossWorks for ARM 2.3/lib/libc_v7m_t_le.a(libc2.o)
 .rodata.libc.__hex_uc
                0x0800ecac       0x10 C:/Program Files (x86)/Rowley Associates Limited/CrossWorks for ARM 2.3/lib/libc_v7m_t_le.a(libc2.o)
                0x0800ecac                __hex_uc
 .rodata.libc.str1.4
                0x0800ecbc       0x30 C:/Program Files (x86)/Rowley Associates Limited/CrossWorks for ARM 2.3/lib/libc_v7m_t_le.a(__vfprintf_double_long_long.o)
                                 0x34 (size before relaxing)
 .rodata.libc.ipow10
                0x0800ecec       0xa0 C:/Program Files (x86)/Rowley Associates Limited/CrossWorks for ARM 2.3/lib/libc_v7m_t_le.a(__vfprintf_double_long_long.o)
                0x0800ed8c                __rodata_end__ = (__rodata_start__ + SIZEOF (.rodata))
                0x0800ed8c                __rodata_load_end__ = __rodata_end__
                0x00000001                . = ASSERT (((__rodata_end__ >= __FLASH_segment_start__) && (__rodata_end__ <= __FLASH_segment_end__)), error: .rodata is too large to fit in FLASH memory segment)
                0x0800ed8c                __ARM.exidx_load_start__ = ALIGN (__rodata_end__, 0x4)

.ARM.exidx      0x0800ed8c        0x0
                0x0800ed8c                __ARM.exidx_start__ = .
                0x0800ed8c                __exidx_start = __ARM.exidx_start__
 *(.ARM.exidx .ARM.exidx.*)
                0x0800ed8c                __ARM.exidx_end__ = (__ARM.exidx_start__ + SIZEOF (.ARM.exidx))
                0x0800ed8c                __exidx_end = __ARM.exidx_end__
                0x0800ed8c                __ARM.exidx_load_end__ = __ARM.exidx_end__
                0x00000001                . = ASSERT (((__ARM.exidx_end__ >= __FLASH_segment_start__) && (__ARM.exidx_end__ <= __FLASH_segment_end__)), error: .ARM.exidx is too large to fit in FLASH memory segment)
                0x0800ed8c                __fast_load_start__ = ALIGN (__ARM.exidx_end__, 0x4)

.fast           0x20000000        0x0 load address 0x0800ed8c
                0x20000000                __fast_start__ = .
 *(.fast .fast.*)
                0x20000000                __fast_end__ = (__fast_start__ + SIZEOF (.fast))
                0x0800ed8c                __fast_load_end__ = (__fast_load_start__ + SIZEOF (.fast))
                0x00000001                . = ASSERT (((__fast_load_end__ >= __FLASH_segment_start__) && (__fast_load_end__ <= __FLASH_segment_end__)), error: .fast is too large to fit in FLASH memory segment)

.fast_run       0x20000000        0x0
                0x20000000                __fast_run_start__ = .
                0x20000000                . = MAX ((__fast_run_start__ + SIZEOF (.fast)), .)
                0x20000000                __fast_run_end__ = (__fast_run_start__ + SIZEOF (.fast_run))
                0x20000000                __fast_run_load_end__ = __fast_run_end__
                0x00000001                . = ASSERT (((__fast_run_end__ >= __RAM_segment_start__) && (__fast_run_end__ <= __RAM_segment_end__)), error: .fast_run is too large to fit in RAM memory segment)
                0x0800ed8c                __data_load_start__ = ALIGN ((__fast_load_start__ + SIZEOF (.fast)), 0x4)

.data           0x20000000      0x294 load address 0x0800ed8c
                0x20000000                __data_start__ = .
 *(.data .data.* .gnu.linkonce.d.*)
 .data.CH       0x20000000       0x1c THUMB Debug/fet.o
                0x20000000                CH
 .data.CL       0x2000001c       0x1c THUMB Debug/fet.o
                0x2000001c                CL
 .data.BH       0x20000038       0x1c THUMB Debug/fet.o
                0x20000038                BH
 .data.AH       0x20000054       0x1c THUMB Debug/fet.o
                0x20000054                AH
 .data.AL       0x20000070       0x1c THUMB Debug/fet.o
                0x20000070                AL
 .data.BL       0x2000008c       0x1c THUMB Debug/fet.o
                0x2000008c                BL
 .data.cliRunModes
                0x200000a8       0x10 THUMB Debug/cli.o
                0x200000a8                cliRunModes
 .data.runError
                0x200000b8        0x4 THUMB Debug/cli.o
                0x200000b8                runError
 .data.cliInputModes
                0x200000bc       0x14 THUMB Debug/cli.o
                0x200000bc                cliInputModes
 .data.stopError
                0x200000d0        0x4 THUMB Debug/cli.o
                0x200000d0                stopError
 .data.cliStates
                0x200000d4       0x14 THUMB Debug/cli.o
                0x200000d4                cliStates
 .data.configParameterStrings
                0x200000e8       0xc8 THUMB Debug/config.o
                0x200000e8                configParameterStrings
 .data.configFormatStrings
                0x200001b0       0xc8 THUMB Debug/config.o
                0x200001b0                configFormatStrings
 .data.ADCPrescTable
                0x20000278        0x4 THUMB Debug/stm32f10x_rcc.o
 .data.APBAHBPrescTable
                0x2000027c       0x10 THUMB Debug/stm32f10x_rcc.o
 .data.SystemCoreClock
                0x2000028c        0x4 THUMB Debug/system_stm32f10x.o
                0x2000028c                SystemCoreClock
 .data.libc.heap
                0x20000290        0x4 C:/Program Files (x86)/Rowley Associates Limited/CrossWorks for ARM 2.3/lib/libc_v7m_t_le.a(libc2.o)
                0x20000294                __data_end__ = (__data_start__ + SIZEOF (.data))
                0x0800f020                __data_load_end__ = (__data_load_start__ + SIZEOF (.data))
                0x00000001                . = ASSERT (((__data_load_end__ >= __FLASH_segment_start__) && (__data_load_end__ <= __FLASH_segment_end__)), error: .data is too large to fit in FLASH memory segment)

.data_run       0x20000000      0x294 load address 0x0800ed8c
                0x20000000                __data_run_start__ = .
                0x20000294                . = MAX ((__data_run_start__ + SIZEOF (.data)), .)
 *fill*         0x20000000      0x294 00
                0x20000294                __data_run_end__ = (__data_run_start__ + SIZEOF (.data_run))
                0x20000294                __data_run_load_end__ = __data_run_end__
                0x00000001                . = ASSERT (((__data_run_end__ >= __RAM_segment_start__) && (__data_run_end__ <= __RAM_segment_end__)), error: .data_run is too large to fit in RAM memory segment)
                0x20000294                __bss_load_start__ = ALIGN (__data_run_end__, 0x4)

.bss            0x20000294     0x1dcc
                0x20000294                __bss_start__ = .
 *(.bss .bss.* .gnu.linkonce.b.*)
 .bss.inputMode
                0x20000294        0x1 THUMB Debug/main.o
                0x20000294                inputMode
 *fill*         0x20000295        0x3 00
 .bss.errorLed  0x20000298        0x4 THUMB Debug/main.o
                0x20000298                errorLed
 .bss.tp        0x2000029c        0x4 THUMB Debug/main.o
                0x2000029c                tp
 .bss.state     0x200002a0        0x1 THUMB Debug/main.o
                0x200002a0                state
 *fill*         0x200002a1        0x3 00
 .bss.minCycles
                0x200002a4        0x4 THUMB Debug/main.o
                0x200002a4                minCycles
 .bss.totalCycles
                0x200002a8        0x4 THUMB Debug/main.o
                0x200002a8                totalCycles
 .bss.statusLed
                0x200002ac        0x4 THUMB Debug/main.o
                0x200002ac                statusLed
 .bss.idleCounter
                0x200002b0        0x4 THUMB Debug/main.o
                0x200002b0                idleCounter
 .bss.fetNextStep
                0x200002b4        0x1 THUMB Debug/fet.o
                0x200002b4                fetNextStep
 *fill*         0x200002b5        0x1 00
 .bss.fetStartDetects
                0x200002b6        0x2 THUMB Debug/fet.o
                0x200002b6                fetStartDetects
 .bss.fetBraking
                0x200002b8        0x1 THUMB Debug/fet.o
                0x200002b8                fetBraking
 *fill*         0x200002b9        0x1 00
 .bss.fetDisarmDetects
                0x200002ba        0x2 THUMB Debug/fet.o
                0x200002ba                fetDisarmDetects
 .bss.fetCommutationMicros
                0x200002bc        0x4 THUMB Debug/fet.o
                0x200002bc                fetCommutationMicros
 .bss.fetTotalBadDetects
                0x200002c0        0x4 THUMB Debug/fet.o
                0x200002c0                fetTotalBadDetects
 .bss.fetBadDetects
                0x200002c4        0x4 THUMB Debug/fet.o
                0x200002c4                fetBadDetects
 .bss.myAngle.2649
                0x200002c8        0x4 THUMB Debug/fet.o
 .bss.fetPeriod
                0x200002cc        0x4 THUMB Debug/fet.o
                0x200002cc                fetPeriod
 .bss.fetActualDutyCycle
                0x200002d0        0x4 THUMB Debug/fet.o
                0x200002d0                fetActualDutyCycle
 .bss.fetStep   0x200002d4        0x1 THUMB Debug/fet.o
                0x200002d4                fetStep
 *fill*         0x200002d5        0x3 00
 .bss.servoDState.2650
                0x200002d8        0x4 THUMB Debug/fet.o
 .bss.startSeqCnt
                0x200002dc        0x2 THUMB Debug/fet.o
                0x200002dc                startSeqCnt
 .bss.fetBrakingEnabled
                0x200002de        0x1 THUMB Debug/fet.o
                0x200002de                fetBrakingEnabled
 *fill*         0x200002df        0x1 00
 .bss.fetDutyCycle
                0x200002e0        0x4 THUMB Debug/fet.o
                0x200002e0                fetDutyCycle
 .bss.fetSine   0x200002e4      0x800 THUMB Debug/fet.o
                0x200002e4                fetSine
 .bss.fetStepDir
                0x20000ae4        0x1 THUMB Debug/fet.o
                0x20000ae4                fetStepDir
 *fill*         0x20000ae5        0x3 00
 .bss.fetGoodDetects
                0x20000ae8        0x4 THUMB Debug/fet.o
                0x20000ae8                fetGoodDetects
 .bss.fetServoAngle
                0x20000aec        0x4 THUMB Debug/fet.o
                0x20000aec                fetServoAngle
 .bss.fetServoMaxRate
                0x20000af0        0x4 THUMB Debug/fet.o
                0x20000af0                fetServoMaxRate
 .bss.fetStartDuty
                0x20000af4        0x4 THUMB Debug/fet.o
                0x20000af4                fetStartDuty
 .bss.fetSwitchFreq
                0x20000af8        0x4 THUMB Debug/fet.o
                0x20000af8                fetSwitchFreq
 .bss.avgC      0x20000afc        0x4 THUMB Debug/adc.o
                0x20000afc                avgC
 .bss.adcblankingMicros
                0x20000b00        0x4 THUMB Debug/adc.o
                0x20000b00                adcblankingMicros
 .bss.adcAmpsOffset
                0x20000b04        0x4 THUMB Debug/adc.o
                0x20000b04                adcAmpsOffset
 .bss.nextCrossingDetect
                0x20000b08        0x4 THUMB Debug/adc.o
                0x20000b08                nextCrossingDetect
 .bss.histA     0x20000b0c       0x80 THUMB Debug/adc.o
                0x20000b0c                histA
 .bss.adcMinPeriod
                0x20000b8c        0x4 THUMB Debug/adc.o
                0x20000b8c                adcMinPeriod
 .bss.detectedCrossing
                0x20000b90        0x4 THUMB Debug/adc.o
                0x20000b90                detectedCrossing
 .bss.histSize  0x20000b94        0x2 THUMB Debug/adc.o
                0x20000b94                histSize
 *fill*         0x20000b96        0x2 00
 .bss.adcAvgAmps
                0x20000b98        0x4 THUMB Debug/adc.o
                0x20000b98                adcAvgAmps
 .bss.adcMaxPeriod
                0x20000b9c        0x4 THUMB Debug/adc.o
                0x20000b9c                adcMaxPeriod
 .bss.adcRawData
                0x20000ba0       0x20 THUMB Debug/adc.o
                0x20000ba0                adcRawData
 .bss.adcAdvance
                0x20000bc0        0x2 THUMB Debug/adc.o
                0x20000bc0                adcAdvance
 *fill*         0x20000bc2        0x2 00
 .bss.crossingPeriod
                0x20000bc4        0x4 THUMB Debug/adc.o
                0x20000bc4                crossingPeriod
 .bss.adcCrossingPeriod
                0x20000bc8        0x4 THUMB Debug/adc.o
                0x20000bc8                adcCrossingPeriod
 .bss.avgB      0x20000bcc        0x4 THUMB Debug/adc.o
                0x20000bcc                avgB
 .bss.histB     0x20000bd0       0x80 THUMB Debug/adc.o
                0x20000bd0                histB
 .bss.histC     0x20000c50       0x80 THUMB Debug/adc.o
                0x20000c50                histC
 .bss.adcToAmps
                0x20000cd0        0x4 THUMB Debug/adc.o
                0x20000cd0                adcToAmps
 .bss.histIndex
                0x20000cd4        0x2 THUMB Debug/adc.o
                0x20000cd4                histIndex
 *fill*         0x20000cd6        0x2 00
 .bss.adcAvgVolts
                0x20000cd8        0x4 THUMB Debug/adc.o
                0x20000cd8                adcAvgVolts
 .bss.adcMaxAmps
                0x20000cdc        0x4 THUMB Debug/adc.o
                0x20000cdc                adcMaxAmps
 .bss.avgA      0x20000ce0        0x4 THUMB Debug/adc.o
                0x20000ce0                avgA
 .bss.adcStateA
                0x20000ce4        0x1 THUMB Debug/adc.o
                0x20000ce4                adcStateA
 .bss.adcStateB
                0x20000ce5        0x1 THUMB Debug/adc.o
                0x20000ce5                adcStateB
 .bss.adcStateC
                0x20000ce6        0x1 THUMB Debug/adc.o
                0x20000ce6                adcStateC
 *fill*         0x20000ce7        0x1 00
 .bss.serialPort
                0x20000ce8     0x1114 THUMB Debug/serial.o
                0x20000ce8                serialPort
 .bss.pwmMinValue
                0x20001dfc        0x2 THUMB Debug/pwm.o
                0x20001dfc                pwmMinValue
 .bss.pwmMinPeriod
                0x20001dfe        0x2 THUMB Debug/pwm.o
                0x20001dfe                pwmMinPeriod
 .bss.pwmMaxValue
                0x20001e00        0x2 THUMB Debug/pwm.o
                0x20001e00                pwmMaxValue
 *fill*         0x20001e02        0x2 00
 .bss.pwmValidMicros
                0x20001e04        0x4 THUMB Debug/pwm.o
                0x20001e04                pwmValidMicros
 .bss.pwmMinStart
                0x20001e08        0x2 THUMB Debug/pwm.o
                0x20001e08                pwmMinStart
 .bss.pwmLoValue
                0x20001e0a        0x2 THUMB Debug/pwm.o
                0x20001e0a                pwmLoValue
 .bss.pwmHiValue
                0x20001e0c        0x2 THUMB Debug/pwm.o
                0x20001e0c                pwmHiValue
 .bss.pwmMaxPeriod
                0x20001e0e        0x2 THUMB Debug/pwm.o
                0x20001e0e                pwmMaxPeriod
 .bss.timerMicros
                0x20001e10        0x4 THUMB Debug/timer.o
                0x20001e10                timerMicros
 .bss.hiBits.2073
                0x20001e14        0x2 THUMB Debug/timer.o
 .bss.timerLast.2072
                0x20001e16        0x2 THUMB Debug/timer.o
 .bss.timerData
                0x20001e18       0x18 THUMB Debug/timer.o
                0x20001e18                timerData
 .bss.runCount  0x20001e30        0x4 THUMB Debug/run.o
                0x20001e30                runCount
 .bss.avgVolts  0x20001e34        0x4 THUMB Debug/run.o
                0x20001e34                avgVolts
 .bss.maxThrust
                0x20001e38        0x4 THUMB Debug/run.o
                0x20001e38                maxThrust
 .bss.rpm       0x20001e3c        0x4 THUMB Debug/run.o
                0x20001e3c                rpm
 .bss.runArmCount
                0x20001e40        0x1 THUMB Debug/run.o
                0x20001e40                runArmCount
 *fill*         0x20001e41        0x3 00
 .bss.rpmITerm  0x20001e44        0x4 THUMB Debug/run.o
                0x20001e44                rpmITerm
 .bss.runRpmLPF
                0x20001e48        0x4 THUMB Debug/run.o
                0x20001e48                runRpmLPF
 .bss.filteredSetpoint.3067
                0x20001e4c        0x4 THUMB Debug/run.o
 .bss.rpmI      0x20001e50        0x4 THUMB Debug/run.o
                0x20001e50                rpmI
 .bss.rpmPTerm  0x20001e54        0x4 THUMB Debug/run.o
                0x20001e54                rpmPTerm
 .bss.commandMode
                0x20001e58        0x1 THUMB Debug/run.o
                0x20001e58                commandMode
 *fill*         0x20001e59        0x3 00
 .bss.currentIState
                0x20001e5c        0x4 THUMB Debug/run.o
                0x20001e5c                currentIState
 .bss.runMode   0x20001e60        0x1 THUMB Debug/run.o
                0x20001e60                runMode
 *fill*         0x20001e61        0x3 00
 .bss.targetRpm
                0x20001e64        0x4 THUMB Debug/run.o
                0x20001e64                targetRpm
 .bss.avgAmps   0x20001e68        0x4 THUMB Debug/run.o
                0x20001e68                avgAmps
 .bss.disarmReason
                0x20001e6c        0x1 THUMB Debug/run.o
                0x20001e6c                disarmReason
 .bss.escId     0x20001e6d        0x1 THUMB Debug/run.o
                0x20001e6d                escId
 *fill*         0x20001e6e        0x2 00
 .bss.maxCurrentSQRT
                0x20001e70        0x4 THUMB Debug/run.o
                0x20001e70                maxCurrentSQRT
 .bss.runRPMFactor
                0x20001e74        0x4 THUMB Debug/run.o
                0x20001e74                runRPMFactor
 .bss.maxAmps   0x20001e78        0x4 THUMB Debug/run.o
                0x20001e78                maxAmps
 .bss.idlePercent
                0x20001e7c        0x4 THUMB Debug/run.o
                0x20001e7c                idlePercent
 .bss.lastPwm.3066
                0x20001e80        0x2 THUMB Debug/run.o
 *fill*         0x20001e82        0x2 00
 .bss.oldIdleCounter
                0x20001e84        0x4 THUMB Debug/run.o
                0x20001e84                oldIdleCounter
 .bss.cliBuf    0x20001e88       0x20 THUMB Debug/cli.o
                0x20001e88                cliBuf
 .bss.tempBuf   0x20001ea8       0x40 THUMB Debug/cli.o
                0x20001ea8                tempBuf
 .bss.cliBufIndex
                0x20001ee8        0x4 THUMB Debug/cli.o
                0x20001ee8                cliBufIndex
 .bss.version   0x20001eec       0x10 THUMB Debug/cli.o
                0x20001eec                version
 .bss.cliTelemetry
                0x20001efc        0x4 THUMB Debug/cli.o
                0x20001efc                cliTelemetry
 .bss.p         0x20001f00       0xc8 THUMB Debug/config.o
                0x20001f00                p
 .bss.sendNack  0x20001fc8        0x2 THUMB Debug/binary.o
                0x20001fc8                sendNack
 *fill*         0x20001fca        0x2 00
 .bss.binaryLoop
                0x20001fcc        0x4 THUMB Debug/binary.o
                0x20001fcc                binaryLoop
 .bss.commandBuf
                0x20001fd0        0xc THUMB Debug/binary.o
                0x20001fd0                commandBuf
 .bss.sendAck   0x20001fdc        0x2 THUMB Debug/binary.o
                0x20001fdc                sendAck
 .bss.i.2674    0x20001fde        0x1 THUMB Debug/binary.o
 .bss.binaryTelemCols
                0x20001fdf        0x1 THUMB Debug/binary.o
                0x20001fdf                binaryTelemCols
 .bss.n.2673    0x20001fe0        0x1 THUMB Debug/binary.o
 .bss.inChkA    0x20001fe1        0x1 THUMB Debug/binary.o
                0x20001fe1                inChkA
 .bss.inChkB    0x20001fe2        0x1 THUMB Debug/binary.o
                0x20001fe2                inChkB
 .bss.binaryTelemetryStop
                0x20001fe3        0x1 THUMB Debug/binary.o
                0x20001fe3                binaryTelemetryStop
 .bss.outChkA   0x20001fe4        0x1 THUMB Debug/binary.o
                0x20001fe4                outChkA
 .bss.outChkB   0x20001fe5        0x1 THUMB Debug/binary.o
                0x20001fe5                outChkB
 *fill*         0x20001fe6        0x2 00
 .bss.binaryTelemRate
                0x20001fe8        0x4 THUMB Debug/binary.o
                0x20001fe8                binaryTelemRate
 .bss.binaryTelemValues
                0x20001fec       0x10 THUMB Debug/binary.o
                0x20001fec                binaryTelemValues
 .bss.binaryParseState
                0x20001ffc        0x1 THUMB Debug/binary.o
                0x20001ffc                binaryParseState
 .bss.binaryTelemRows
                0x20001ffd        0x1 THUMB Debug/binary.o
                0x20001ffd                binaryTelemRows
 *fill*         0x20001ffe        0x2 00
 .bss.telemRowsCount.2690
                0x20002000        0x4 THUMB Debug/binary.o
 .bss.owBuf     0x20002004       0x10 THUMB Debug/ow.o
                0x20002004                owBuf
 .bss.owState   0x20002014        0x1 THUMB Debug/ow.o
                0x20002014                owState
 *fill*         0x20002015        0x3 00
 .bss.owROMCode
                0x20002018        0x8 THUMB Debug/ow.o
                0x20002018                owROMCode
 .bss.owBufPointer
                0x20002020        0x4 THUMB Debug/ow.o
                0x20002020                owBufPointer
 .bss.owByteValue
                0x20002024        0x1 THUMB Debug/ow.o
                0x20002024                owByteValue
 .bss.owBit     0x20002025        0x1 THUMB Debug/ow.o
                0x20002025                owBit
 .bss.owWriteNum
                0x20002026        0x1 THUMB Debug/ow.o
                0x20002026                owWriteNum
 .bss.owReadNum
                0x20002027        0x1 THUMB Debug/ow.o
                0x20002027                owReadNum
 .bss.owLastCommand
                0x20002028        0x1 THUMB Debug/ow.o
                0x20002028                owLastCommand
 *fill*         0x20002029        0x3 00
 .bss.loops.2717
                0x2000202c        0x4 THUMB Debug/can.o
 .bss.canData   0x20002030       0x20 THUMB Debug/can.o
                0x20002030                canData
 .bss.libc.__format_extender
                0x20002050        0x4 C:/Program Files (x86)/Rowley Associates Limited/CrossWorks for ARM 2.3/lib/libc_v7m_t_le.a(libc2.o)
                0x20002050                __format_extender
 .bss.libdebugio.dbgCommWord
                0x20002054        0x4 C:/Program Files (x86)/Rowley Associates Limited/CrossWorks for ARM 2.3/lib/libdebugio_v7m_t_le.a(libdebugio.o)
                0x20002054                dbgCommWord
 .bss.libdebugio.dbgCntrlWord_mempoll
                0x20002058        0x4 C:/Program Files (x86)/Rowley Associates Limited/CrossWorks for ARM 2.3/lib/libdebugio_v7m_t_le.a(libdebugio.o)
                0x20002058                dbgCntrlWord_mempoll
 .bss.libc.errno
                0x2000205c        0x4 C:/Program Files (x86)/Rowley Associates Limited/CrossWorks for ARM 2.3/lib/libc_user_libc_v7m_t_le.a(user_libc.o)
 *(COMMON)
                0x20002060                __bss_end__ = (__bss_start__ + SIZEOF (.bss))
                0x20002060                __bss_load_end__ = __bss_end__
                0x00000001                . = ASSERT (((__bss_end__ >= __RAM_segment_start__) && (__bss_end__ <= __RAM_segment_end__)), error: .bss is too large to fit in RAM memory segment)
                0x20002060                __non_init_load_start__ = ALIGN (__bss_end__, 0x4)

.non_init       0x20002060        0x0
                0x20002060                __non_init_start__ = .
 *(.non_init .non_init.*)
                0x20002060                __non_init_end__ = (__non_init_start__ + SIZEOF (.non_init))
                0x20002060                __non_init_load_end__ = __non_init_end__
                0x00000001                . = ASSERT (((__non_init_end__ >= __RAM_segment_start__) && (__non_init_end__ <= __RAM_segment_end__)), error: .non_init is too large to fit in RAM memory segment)
                0x20002060                __heap_load_start__ = ALIGN (__non_init_end__, 0x4)

.heap           0x20002060      0x400
                0x20002060                __heap_start__ = .
 *(.heap .heap.*)
                0x20002460                . = ALIGN (MAX ((__heap_start__ + __HEAPSIZE__), .), 0x4)
 *fill*         0x20002060      0x400 00
                0x20002460                __heap_end__ = (__heap_start__ + SIZEOF (.heap))
                0x20002460                __heap_load_end__ = __heap_end__
                0x00000001                . = ASSERT (((__heap_end__ >= __RAM_segment_start__) && (__heap_end__ <= __RAM_segment_end__)), error: .heap is too large to fit in RAM memory segment)
                0x20002460                __stack_load_start__ = ALIGN (__heap_end__, 0x4)

.stack          0x20002460      0x400
                0x20002460                __stack_start__ = .
 *(.stack .stack.*)
                0x20002860                . = ALIGN (MAX ((__stack_start__ + __STACKSIZE__), .), 0x4)
 *fill*         0x20002460      0x400 00
                0x20002860                __stack_end__ = (__stack_start__ + SIZEOF (.stack))
                0x20002860                __stack_load_end__ = __stack_end__
                0x00000001                . = ASSERT (((__stack_end__ >= __RAM_segment_start__) && (__stack_end__ <= __RAM_segment_end__)), error: .stack is too large to fit in RAM memory segment)
                0x20002860                __stack_process_load_start__ = ALIGN (__stack_end__, 0x4)

.stack_process  0x20002860        0x0
                0x20002860                __stack_process_start__ = .
 *(.stack_process .stack_process.*)
                0x20002860                . = ALIGN (MAX ((__stack_process_start__ + __STACKSIZE_PROCESS__), .), 0x4)
                0x20002860                __stack_process_end__ = (__stack_process_start__ + SIZEOF (.stack_process))
                0x20002860                __stack_process_load_end__ = __stack_process_end__
                0x00000001                . = ASSERT (((__stack_process_end__ >= __RAM_segment_start__) && (__stack_process_end__ <= __RAM_segment_end__)), error: .stack_process is too large to fit in RAM memory segment)
                0x20002860                __tbss_load_start__ = ALIGN (__stack_process_end__, 0x4)

.tbss           0x20002860        0x0
                0x20002860                __tbss_start__ = .
 *(.tbss .tbss.*)
                0x20002860                __tbss_end__ = (__tbss_start__ + SIZEOF (.tbss))
                0x20002860                __tbss_load_end__ = __tbss_end__
                0x00000001                . = ASSERT (((__tbss_end__ >= __RAM_segment_start__) && (__tbss_end__ <= __RAM_segment_end__)), error: .tbss is too large to fit in RAM memory segment)
                0x0800f020                __tdata_load_start__ = ALIGN ((__data_load_start__ + SIZEOF (.data)), 0x4)

.tdata          0x20002860        0x0 load address 0x0800f020
                0x20002860                __tdata_start__ = .
 *(.tdata .tdata.*)
                0x20002860                __tdata_end__ = (__tdata_start__ + SIZEOF (.tdata))
                0x0800f020                __tdata_load_end__ = (__tdata_load_start__ + SIZEOF (.tdata))
                0x0800f020                __FLASH_segment_used_end__ = (ALIGN ((__data_load_start__ + SIZEOF (.data)), 0x4) + SIZEOF (.tdata))
                0x00000001                . = ASSERT (((__tdata_load_end__ >= __FLASH_segment_start__) && (__tdata_load_end__ <= __FLASH_segment_end__)), error: .tdata is too large to fit in FLASH memory segment)

.tdata_run      0x20002860        0x0
                0x20002860                __tdata_run_start__ = .
                0x20002860                . = MAX ((__tdata_run_start__ + SIZEOF (.tdata)), .)
                0x20002860                __tdata_run_end__ = (__tdata_run_start__ + SIZEOF (.tdata_run))
                0x20002860                __tdata_run_load_end__ = __tdata_run_end__
                0x20002860                __RAM_segment_used_end__ = (ALIGN (__tbss_end__, 0x4) + SIZEOF (.tdata_run))
                0x00000001                . = ASSERT (((__tdata_run_end__ >= __RAM_segment_start__) && (__tdata_run_end__ <= __RAM_segment_end__)), error: .tdata_run is too large to fit in RAM memory segment)
START GROUP
LOAD THUMB Debug/main.o
LOAD THUMB Debug/fet.o
LOAD THUMB Debug/digital.o
LOAD THUMB Debug/rcc.o
LOAD THUMB Debug/adc.o
LOAD THUMB Debug/serial.o
LOAD THUMB Debug/pwm.o
LOAD THUMB Debug/timer.o
LOAD THUMB Debug/run.o
LOAD THUMB Debug/cli.o
LOAD THUMB Debug/config.o
LOAD THUMB Debug/binary.o
LOAD THUMB Debug/ow.o
LOAD THUMB Debug/can.o
LOAD THUMB Debug/xxhash.o
LOAD THUMB Debug/thumb_crt0.o
LOAD THUMB Debug/STM32_Startup.o
LOAD THUMB Debug/getbuildnum.o
LOAD THUMB Debug/stm32f10x_gpio.o
LOAD THUMB Debug/stm32f10x_rcc.o
LOAD THUMB Debug/system_stm32f10x.o
LOAD THUMB Debug/stm32f10x_tim.o
LOAD THUMB Debug/stm32f10x_dbgmcu.o
LOAD THUMB Debug/stm32f10x_adc.o
LOAD THUMB Debug/stm32f10x_dma.o
LOAD THUMB Debug/misc.o
LOAD THUMB Debug/stm32f10x_usart.o
LOAD THUMB Debug/stm32f10x_exti.o
LOAD THUMB Debug/stm32f10x_pwr.o
LOAD THUMB Debug/stm32f10x_flash.o
LOAD THUMB Debug/stm32f10x_iwdg.o
LOAD THUMB Debug/stm32f10x_can.o
LOAD THUMB Debug/stm32f10x_i2c.o
LOAD C:/Program Files (x86)/Rowley Associates Limited/CrossWorks for ARM 2.3/lib/libcm_v7m_t_le.a
LOAD C:/Program Files (x86)/Rowley Associates Limited/CrossWorks for ARM 2.3/lib/libm_v7m_t_le.a
LOAD C:/Program Files (x86)/Rowley Associates Limited/CrossWorks for ARM 2.3/lib/libc_v7m_t_le.a
LOAD C:/Program Files (x86)/Rowley Associates Limited/CrossWorks for ARM 2.3/lib/libcpp_v7m_t_le.a
LOAD C:/Program Files (x86)/Rowley Associates Limited/CrossWorks for ARM 2.3/lib/libdebugio_v7m_t_le.a
LOAD C:/Program Files (x86)/Rowley Associates Limited/CrossWorks for ARM 2.3/lib/libc_targetio_impl_v7m_t_le.a
LOAD C:/Program Files (x86)/Rowley Associates Limited/CrossWorks for ARM 2.3/lib/libc_user_libc_v7m_t_le.a
END GROUP
OUTPUT(THUMB Debug/ESC32.elf elf32-littlearm)

.debug_frame    0x00000000     0x6acc
 .debug_frame   0x00000000       0xa0 THUMB Debug/main.o
 .debug_frame   0x000000a0      0x28c THUMB Debug/fet.o
 .debug_frame   0x0000032c       0x48 THUMB Debug/digital.o
 .debug_frame   0x00000374       0x98 THUMB Debug/rcc.o
 .debug_frame   0x0000040c       0xdc THUMB Debug/adc.o
 .debug_frame   0x000004e8      0x110 THUMB Debug/serial.o
 .debug_frame   0x000005f8       0xa4 THUMB Debug/pwm.o
 .debug_frame   0x0000069c      0x128 THUMB Debug/timer.o
 .debug_frame   0x000007c4      0x1c4 THUMB Debug/run.o
 .debug_frame   0x00000988      0x3bc THUMB Debug/cli.o
 .debug_frame   0x00000d44      0x12c THUMB Debug/config.o
 .debug_frame   0x00000e70      0x150 THUMB Debug/binary.o
 .debug_frame   0x00000fc0      0x1e4 THUMB Debug/ow.o
 .debug_frame   0x000011a4      0x148 THUMB Debug/can.o
 .debug_frame   0x000012ec       0xdc THUMB Debug/xxhash.o
 .debug_frame   0x000013c8       0x20 THUMB Debug/getbuildnum.o
 .debug_frame   0x000013e8      0x230 THUMB Debug/stm32f10x_gpio.o
 .debug_frame   0x00001618      0x390 THUMB Debug/stm32f10x_rcc.o
 .debug_frame   0x000019a8       0x38 THUMB Debug/system_stm32f10x.o
 .debug_frame   0x000019e0      0xaf8 THUMB Debug/stm32f10x_tim.o
 .debug_frame   0x000024d8       0x50 THUMB Debug/stm32f10x_dbgmcu.o
 .debug_frame   0x00002528      0x460 THUMB Debug/stm32f10x_adc.o
 .debug_frame   0x00002988      0x148 THUMB Debug/stm32f10x_dma.o
 .debug_frame   0x00002ad0       0xa4 THUMB Debug/misc.o
 .debug_frame   0x00002b74      0x388 THUMB Debug/stm32f10x_usart.o
 .debug_frame   0x00002efc       0xd8 THUMB Debug/stm32f10x_exti.o
 .debug_frame   0x00002fd4      0x104 THUMB Debug/stm32f10x_pwr.o
 .debug_frame   0x000030d8      0x2c8 THUMB Debug/stm32f10x_flash.o
 .debug_frame   0x000033a0       0xa0 THUMB Debug/stm32f10x_iwdg.o
 .debug_frame   0x00003440      0x2f8 THUMB Debug/stm32f10x_can.o
 .debug_frame   0x00003738      0x420 THUMB Debug/stm32f10x_i2c.o
 .debug_frame   0x00003b58      0x640 C:/Program Files (x86)/Rowley Associates Limited/CrossWorks for ARM 2.3/lib/libm_v7m_t_le.a(libm_asm.o)
 .debug_frame   0x00004198      0x970 C:/Program Files (x86)/Rowley Associates Limited/CrossWorks for ARM 2.3/lib/libm_v7m_t_le.a(libm2.o)
 .debug_frame   0x00004b08       0xc0 C:/Program Files (x86)/Rowley Associates Limited/CrossWorks for ARM 2.3/lib/libm_v7m_t_le.a(libm2_asm.o)
 .debug_frame   0x00004bc8     0x128c C:/Program Files (x86)/Rowley Associates Limited/CrossWorks for ARM 2.3/lib/libc_v7m_t_le.a(libc2.o)
 .debug_frame   0x00005e54      0x120 C:/Program Files (x86)/Rowley Associates Limited/CrossWorks for ARM 2.3/lib/libc_v7m_t_le.a(libc2_asm.o)
 .debug_frame   0x00005f74       0x40 C:/Program Files (x86)/Rowley Associates Limited/CrossWorks for ARM 2.3/lib/libc_v7m_t_le.a(__vfprintf_double_long_long.o)
 .debug_frame   0x00005fb4       0x8c C:/Program Files (x86)/Rowley Associates Limited/CrossWorks for ARM 2.3/lib/libc_v7m_t_le.a(__vfscanf_double_long_long.o)
 .debug_frame   0x00006040      0x260 C:/Program Files (x86)/Rowley Associates Limited/CrossWorks for ARM 2.3/lib/libc_v7m_t_le.a(libc_asm.o)
 .debug_frame   0x000062a0      0x78c C:/Program Files (x86)/Rowley Associates Limited/CrossWorks for ARM 2.3/lib/libdebugio_v7m_t_le.a(libdebugio.o)
 .debug_frame   0x00006a2c       0xa0 C:/Program Files (x86)/Rowley Associates Limited/CrossWorks for ARM 2.3/lib/libc_user_libc_v7m_t_le.a(user_libc.o)

.debug_info     0x00000000    0x152d2
 .debug_info    0x00000000      0x5fc THUMB Debug/main.o
 .debug_info    0x000005fc     0x10c3 THUMB Debug/fet.o
 .debug_info    0x000016bf      0x297 THUMB Debug/digital.o
 .debug_info    0x00001956      0x4b5 THUMB Debug/rcc.o
 .debug_info    0x00001e0b      0xd6e THUMB Debug/adc.o
 .debug_info    0x00002b79      0x9bb THUMB Debug/serial.o
 .debug_info    0x00003534      0xae6 THUMB Debug/pwm.o
 .debug_info    0x0000401a      0x8a3 THUMB Debug/timer.o
 .debug_info    0x000048bd     0x162e THUMB Debug/run.o
 .debug_info    0x00005eeb     0x113c THUMB Debug/cli.o
 .debug_info    0x00007027      0x514 THUMB Debug/config.o
 .debug_info    0x0000753b      0xa60 THUMB Debug/binary.o
 .debug_info    0x00007f9b      0x790 THUMB Debug/ow.o
 .debug_info    0x0000872b     0x1acc THUMB Debug/can.o
 .debug_info    0x0000a1f7     0x148d THUMB Debug/xxhash.o
 .debug_info    0x0000b684       0xe9 THUMB Debug/thumb_crt0.o
 .debug_info    0x0000b76d      0x101 THUMB Debug/STM32_Startup.o
 .debug_info    0x0000b86e       0x44 THUMB Debug/getbuildnum.o
 .debug_info    0x0000b8b2      0x751 THUMB Debug/stm32f10x_gpio.o
 .debug_info    0x0000c003      0x92a THUMB Debug/stm32f10x_rcc.o
 .debug_info    0x0000c92d      0x4c2 THUMB Debug/system_stm32f10x.o
 .debug_info    0x0000cdef     0x1f66 THUMB Debug/stm32f10x_tim.o
 .debug_info    0x0000ed55      0x15e THUMB Debug/stm32f10x_dbgmcu.o
 .debug_info    0x0000eeb3      0xc60 THUMB Debug/stm32f10x_adc.o
 .debug_info    0x0000fb13      0x4b8 THUMB Debug/stm32f10x_dma.o
 .debug_info    0x0000ffcb      0x549 THUMB Debug/misc.o
 .debug_info    0x00010514      0xaa7 THUMB Debug/stm32f10x_usart.o
 .debug_info    0x00010fbb      0x377 THUMB Debug/stm32f10x_exti.o
 .debug_info    0x00011332      0x47a THUMB Debug/stm32f10x_pwr.o
 .debug_info    0x000117ac      0x835 THUMB Debug/stm32f10x_flash.o
 .debug_info    0x00011fe1      0x1fc THUMB Debug/stm32f10x_iwdg.o
 .debug_info    0x000121dd      0xc87 THUMB Debug/stm32f10x_can.o
 .debug_info    0x00012e64      0xbdd THUMB Debug/stm32f10x_i2c.o
 .debug_info    0x00013a41      0x59e C:/Program Files (x86)/Rowley Associates Limited/CrossWorks for ARM 2.3/lib/libm_v7m_t_le.a(libm2.o)
 .debug_info    0x00013fdf      0xc63 C:/Program Files (x86)/Rowley Associates Limited/CrossWorks for ARM 2.3/lib/libc_v7m_t_le.a(libc2.o)
 .debug_info    0x00014c42       0x36 C:/Program Files (x86)/Rowley Associates Limited/CrossWorks for ARM 2.3/lib/libc_v7m_t_le.a(__vfprintf_double_long_long.o)
 .debug_info    0x00014c78       0x6e C:/Program Files (x86)/Rowley Associates Limited/CrossWorks for ARM 2.3/lib/libc_v7m_t_le.a(__vfscanf_double_long_long.o)
 .debug_info    0x00014ce6      0x51f C:/Program Files (x86)/Rowley Associates Limited/CrossWorks for ARM 2.3/lib/libdebugio_v7m_t_le.a(libdebugio.o)
 .debug_info    0x00015205       0xcd C:/Program Files (x86)/Rowley Associates Limited/CrossWorks for ARM 2.3/lib/libc_user_libc_v7m_t_le.a(user_libc.o)

.debug_abbrev   0x00000000     0x395c
 .debug_abbrev  0x00000000      0x1be THUMB Debug/main.o
 .debug_abbrev  0x000001be      0x2ee THUMB Debug/fet.o
 .debug_abbrev  0x000004ac      0x160 THUMB Debug/digital.o
 .debug_abbrev  0x0000060c      0x179 THUMB Debug/rcc.o
 .debug_abbrev  0x00000785      0x257 THUMB Debug/adc.o
 .debug_abbrev  0x000009dc      0x1e9 THUMB Debug/serial.o
 .debug_abbrev  0x00000bc5      0x1b5 THUMB Debug/pwm.o
 .debug_abbrev  0x00000d7a      0x1bb THUMB Debug/timer.o
 .debug_abbrev  0x00000f35      0x378 THUMB Debug/run.o
 .debug_abbrev  0x000012ad      0x201 THUMB Debug/cli.o
 .debug_abbrev  0x000014ae      0x1bb THUMB Debug/config.o
 .debug_abbrev  0x00001669      0x1e2 THUMB Debug/binary.o
 .debug_abbrev  0x0000184b      0x1e1 THUMB Debug/ow.o
 .debug_abbrev  0x00001a2c      0x35a THUMB Debug/can.o
 .debug_abbrev  0x00001d86      0x2dd THUMB Debug/xxhash.o
 .debug_abbrev  0x00002063       0x14 THUMB Debug/thumb_crt0.o
 .debug_abbrev  0x00002077       0x14 THUMB Debug/STM32_Startup.o
 .debug_abbrev  0x0000208b       0x34 THUMB Debug/getbuildnum.o
 .debug_abbrev  0x000020bf      0x1ca THUMB Debug/stm32f10x_gpio.o
 .debug_abbrev  0x00002289      0x1a0 THUMB Debug/stm32f10x_rcc.o
 .debug_abbrev  0x00002429      0x1a6 THUMB Debug/system_stm32f10x.o
 .debug_abbrev  0x000025cf      0x209 THUMB Debug/stm32f10x_tim.o
 .debug_abbrev  0x000027d8       0xda THUMB Debug/stm32f10x_dbgmcu.o
 .debug_abbrev  0x000028b2      0x19a THUMB Debug/stm32f10x_adc.o
 .debug_abbrev  0x00002a4c      0x174 THUMB Debug/stm32f10x_dma.o
 .debug_abbrev  0x00002bc0      0x135 THUMB Debug/misc.o
 .debug_abbrev  0x00002cf5      0x190 THUMB Debug/stm32f10x_usart.o
 .debug_abbrev  0x00002e85      0x170 THUMB Debug/stm32f10x_exti.o
 .debug_abbrev  0x00002ff5      0x1a6 THUMB Debug/stm32f10x_pwr.o
 .debug_abbrev  0x0000319b      0x17b THUMB Debug/stm32f10x_flash.o
 .debug_abbrev  0x00003316       0xfa THUMB Debug/stm32f10x_iwdg.o
 .debug_abbrev  0x00003410      0x1d2 THUMB Debug/stm32f10x_can.o
 .debug_abbrev  0x000035e2      0x192 THUMB Debug/stm32f10x_i2c.o
 .debug_abbrev  0x00003774       0x76 C:/Program Files (x86)/Rowley Associates Limited/CrossWorks for ARM 2.3/lib/libm_v7m_t_le.a(libm2.o)
 .debug_abbrev  0x000037ea       0xa0 C:/Program Files (x86)/Rowley Associates Limited/CrossWorks for ARM 2.3/lib/libc_v7m_t_le.a(libc2.o)
 .debug_abbrev  0x0000388a       0x25 C:/Program Files (x86)/Rowley Associates Limited/CrossWorks for ARM 2.3/lib/libc_v7m_t_le.a(__vfprintf_double_long_long.o)
 .debug_abbrev  0x000038af       0x50 C:/Program Files (x86)/Rowley Associates Limited/CrossWorks for ARM 2.3/lib/libc_v7m_t_le.a(__vfscanf_double_long_long.o)
 .debug_abbrev  0x000038ff       0x38 C:/Program Files (x86)/Rowley Associates Limited/CrossWorks for ARM 2.3/lib/libdebugio_v7m_t_le.a(libdebugio.o)
 .debug_abbrev  0x00003937       0x25 C:/Program Files (x86)/Rowley Associates Limited/CrossWorks for ARM 2.3/lib/libc_user_libc_v7m_t_le.a(user_libc.o)

.debug_loc      0x00000000    0x1125b
 .debug_loc     0x00000000       0x92 THUMB Debug/main.o
 .debug_loc     0x00000092      0x82d THUMB Debug/fet.o
 .debug_loc     0x000008bf       0x86 THUMB Debug/digital.o
 .debug_loc     0x00000945       0xd0 THUMB Debug/rcc.o
 .debug_loc     0x00000a15      0x326 THUMB Debug/adc.o
 .debug_loc     0x00000d3b      0x149 THUMB Debug/serial.o
 .debug_loc     0x00000e84       0xea THUMB Debug/pwm.o
 .debug_loc     0x00000f6e      0x280 THUMB Debug/timer.o
 .debug_loc     0x000011ee      0x6f6 THUMB Debug/run.o
 .debug_loc     0x000018e4      0xb46 THUMB Debug/cli.o
 .debug_loc     0x0000242a      0x324 THUMB Debug/config.o
 .debug_loc     0x0000274e      0x2e2 THUMB Debug/binary.o
 .debug_loc     0x00002a30      0x3b2 THUMB Debug/ow.o
 .debug_loc     0x00002de2      0xba7 THUMB Debug/can.o
 .debug_loc     0x00003989     0x1da9 THUMB Debug/xxhash.o
 .debug_loc     0x00005732      0x807 THUMB Debug/stm32f10x_gpio.o
 .debug_loc     0x00005f39      0xc38 THUMB Debug/stm32f10x_rcc.o
 .debug_loc     0x00006b71      0x165 THUMB Debug/system_stm32f10x.o
 .debug_loc     0x00006cd6     0x315e THUMB Debug/stm32f10x_tim.o
 .debug_loc     0x00009e34       0x67 THUMB Debug/stm32f10x_dbgmcu.o
 .debug_loc     0x00009e9b     0x12d2 THUMB Debug/stm32f10x_adc.o
 .debug_loc     0x0000b16d      0x406 THUMB Debug/stm32f10x_dma.o
 .debug_loc     0x0000b573      0x22b THUMB Debug/misc.o
 .debug_loc     0x0000b79e      0xeb6 THUMB Debug/stm32f10x_usart.o
 .debug_loc     0x0000c654      0x23d THUMB Debug/stm32f10x_exti.o
 .debug_loc     0x0000c891      0x26a THUMB Debug/stm32f10x_pwr.o
 .debug_loc     0x0000cafb      0x93a THUMB Debug/stm32f10x_flash.o
 .debug_loc     0x0000d435      0x122 THUMB Debug/stm32f10x_iwdg.o
 .debug_loc     0x0000d557      0xc12 THUMB Debug/stm32f10x_can.o
 .debug_loc     0x0000e169      0xfc6 THUMB Debug/stm32f10x_i2c.o
 .debug_loc     0x0000f12f      0x839 C:/Program Files (x86)/Rowley Associates Limited/CrossWorks for ARM 2.3/lib/libm_v7m_t_le.a(libm2.o)
 .debug_loc     0x0000f968     0x1059 C:/Program Files (x86)/Rowley Associates Limited/CrossWorks for ARM 2.3/lib/libc_v7m_t_le.a(libc2.o)
 .debug_loc     0x000109c1       0x2d C:/Program Files (x86)/Rowley Associates Limited/CrossWorks for ARM 2.3/lib/libc_v7m_t_le.a(__vfprintf_double_long_long.o)
 .debug_loc     0x000109ee       0x79 C:/Program Files (x86)/Rowley Associates Limited/CrossWorks for ARM 2.3/lib/libc_v7m_t_le.a(__vfscanf_double_long_long.o)
 .debug_loc     0x00010a67      0x7f4 C:/Program Files (x86)/Rowley Associates Limited/CrossWorks for ARM 2.3/lib/libdebugio_v7m_t_le.a(libdebugio.o)

.debug_aranges  0x00000000     0x1cc0
 .debug_aranges
                0x00000000       0x50 THUMB Debug/main.o
 .debug_aranges
                0x00000050       0xb8 THUMB Debug/fet.o
 .debug_aranges
                0x00000108       0x28 THUMB Debug/digital.o
 .debug_aranges
                0x00000130       0x40 THUMB Debug/rcc.o
 .debug_aranges
                0x00000170       0x48 THUMB Debug/adc.o
 .debug_aranges
                0x000001b8       0x60 THUMB Debug/serial.o
 .debug_aranges
                0x00000218       0x48 THUMB Debug/pwm.o
 .debug_aranges
                0x00000260       0x70 THUMB Debug/timer.o
 .debug_aranges
                0x000002d0       0x90 THUMB Debug/run.o
 .debug_aranges
                0x00000360       0xf8 THUMB Debug/cli.o
 .debug_aranges
                0x00000458       0x60 THUMB Debug/config.o
 .debug_aranges
                0x000004b8       0x70 THUMB Debug/binary.o
 .debug_aranges
                0x00000528       0xa0 THUMB Debug/ow.o
 .debug_aranges
                0x000005c8       0x70 THUMB Debug/can.o
 .debug_aranges
                0x00000638       0x50 THUMB Debug/xxhash.o
 .debug_aranges
                0x00000688       0x20 THUMB Debug/thumb_crt0.o
 .debug_aranges
                0x000006a8       0x20 THUMB Debug/STM32_Startup.o
 .debug_aranges
                0x000006c8       0x20 THUMB Debug/getbuildnum.o
 .debug_aranges
                0x000006e8       0xa8 THUMB Debug/stm32f10x_gpio.o
 .debug_aranges
                0x00000790      0x118 THUMB Debug/stm32f10x_rcc.o
 .debug_aranges
                0x000008a8       0x28 THUMB Debug/system_stm32f10x.o
 .debug_aranges
                0x000008d0      0x2e0 THUMB Debug/stm32f10x_tim.o
 .debug_aranges
                0x00000bb0       0x30 THUMB Debug/stm32f10x_dbgmcu.o
 .debug_aranges
                0x00000be0      0x138 THUMB Debug/stm32f10x_adc.o
 .debug_aranges
                0x00000d18       0x70 THUMB Debug/stm32f10x_dma.o
 .debug_aranges
                0x00000d88       0x40 THUMB Debug/misc.o
 .debug_aranges
                0x00000dc8      0x100 THUMB Debug/stm32f10x_usart.o
 .debug_aranges
                0x00000ec8       0x58 THUMB Debug/stm32f10x_exti.o
 .debug_aranges
                0x00000f20       0x60 THUMB Debug/stm32f10x_pwr.o
 .debug_aranges
                0x00000f80       0xf8 THUMB Debug/stm32f10x_flash.o
 .debug_aranges
                0x00001078       0x48 THUMB Debug/stm32f10x_iwdg.o
 .debug_aranges
                0x000010c0       0xe0 THUMB Debug/stm32f10x_can.o
 .debug_aranges
                0x000011a0      0x120 THUMB Debug/stm32f10x_i2c.o
 .debug_aranges
                0x000012c0      0x230 C:/Program Files (x86)/Rowley Associates Limited/CrossWorks for ARM 2.3/lib/libm_v7m_t_le.a(libm2.o)
 .debug_aranges
                0x000014f0      0x508 C:/Program Files (x86)/Rowley Associates Limited/CrossWorks for ARM 2.3/lib/libc_v7m_t_le.a(libc2.o)
 .debug_aranges
                0x000019f8       0x20 C:/Program Files (x86)/Rowley Associates Limited/CrossWorks for ARM 2.3/lib/libc_v7m_t_le.a(__vfprintf_double_long_long.o)
 .debug_aranges
                0x00001a18       0x30 C:/Program Files (x86)/Rowley Associates Limited/CrossWorks for ARM 2.3/lib/libc_v7m_t_le.a(__vfscanf_double_long_long.o)
 .debug_aranges
                0x00001a48      0x218 C:/Program Files (x86)/Rowley Associates Limited/CrossWorks for ARM 2.3/lib/libdebugio_v7m_t_le.a(libdebugio.o)
 .debug_aranges
                0x00001c60       0x60 C:/Program Files (x86)/Rowley Associates Limited/CrossWorks for ARM 2.3/lib/libc_user_libc_v7m_t_le.a(user_libc.o)

.debug_ranges   0x00000000     0x1b68
 .debug_ranges  0x00000000       0x40 THUMB Debug/main.o
 .debug_ranges  0x00000040       0xa8 THUMB Debug/fet.o
 .debug_ranges  0x000000e8       0x18 THUMB Debug/digital.o
 .debug_ranges  0x00000100       0x30 THUMB Debug/rcc.o
 .debug_ranges  0x00000130       0xd8 THUMB Debug/adc.o
 .debug_ranges  0x00000208       0x50 THUMB Debug/serial.o
 .debug_ranges  0x00000258       0x38 THUMB Debug/pwm.o
 .debug_ranges  0x00000290       0x60 THUMB Debug/timer.o
 .debug_ranges  0x000002f0       0x80 THUMB Debug/run.o
 .debug_ranges  0x00000370       0xe8 THUMB Debug/cli.o
 .debug_ranges  0x00000458       0x50 THUMB Debug/config.o
 .debug_ranges  0x000004a8       0x78 THUMB Debug/binary.o
 .debug_ranges  0x00000520       0x90 THUMB Debug/ow.o
 .debug_ranges  0x000005b0       0x60 THUMB Debug/can.o
 .debug_ranges  0x00000610       0x40 THUMB Debug/xxhash.o
 .debug_ranges  0x00000650       0x10 THUMB Debug/getbuildnum.o
 .debug_ranges  0x00000660       0x98 THUMB Debug/stm32f10x_gpio.o
 .debug_ranges  0x000006f8      0x108 THUMB Debug/stm32f10x_rcc.o
 .debug_ranges  0x00000800       0x18 THUMB Debug/system_stm32f10x.o
 .debug_ranges  0x00000818      0x350 THUMB Debug/stm32f10x_tim.o
 .debug_ranges  0x00000b68       0x20 THUMB Debug/stm32f10x_dbgmcu.o
 .debug_ranges  0x00000b88      0x128 THUMB Debug/stm32f10x_adc.o
 .debug_ranges  0x00000cb0       0x60 THUMB Debug/stm32f10x_dma.o
 .debug_ranges  0x00000d10       0x30 THUMB Debug/misc.o
 .debug_ranges  0x00000d40       0xf0 THUMB Debug/stm32f10x_usart.o
 .debug_ranges  0x00000e30       0x48 THUMB Debug/stm32f10x_exti.o
 .debug_ranges  0x00000e78       0x50 THUMB Debug/stm32f10x_pwr.o
 .debug_ranges  0x00000ec8       0xe8 THUMB Debug/stm32f10x_flash.o
 .debug_ranges  0x00000fb0       0x38 THUMB Debug/stm32f10x_iwdg.o
 .debug_ranges  0x00000fe8       0xd0 THUMB Debug/stm32f10x_can.o
 .debug_ranges  0x000010b8      0x110 THUMB Debug/stm32f10x_i2c.o
 .debug_ranges  0x000011c8      0x220 C:/Program Files (x86)/Rowley Associates Limited/CrossWorks for ARM 2.3/lib/libm_v7m_t_le.a(libm2.o)
 .debug_ranges  0x000013e8      0x4f8 C:/Program Files (x86)/Rowley Associates Limited/CrossWorks for ARM 2.3/lib/libc_v7m_t_le.a(libc2.o)
 .debug_ranges  0x000018e0       0x10 C:/Program Files (x86)/Rowley Associates Limited/CrossWorks for ARM 2.3/lib/libc_v7m_t_le.a(__vfprintf_double_long_long.o)
 .debug_ranges  0x000018f0       0x20 C:/Program Files (x86)/Rowley Associates Limited/CrossWorks for ARM 2.3/lib/libc_v7m_t_le.a(__vfscanf_double_long_long.o)
 .debug_ranges  0x00001910      0x208 C:/Program Files (x86)/Rowley Associates Limited/CrossWorks for ARM 2.3/lib/libdebugio_v7m_t_le.a(libdebugio.o)
 .debug_ranges  0x00001b18       0x50 C:/Program Files (x86)/Rowley Associates Limited/CrossWorks for ARM 2.3/lib/libc_user_libc_v7m_t_le.a(user_libc.o)

.debug_line     0x00000000     0xa84f
 .debug_line    0x00000000      0x1ef THUMB Debug/main.o
 .debug_line    0x000001ef      0x56a THUMB Debug/fet.o
 .debug_line    0x00000759      0x153 THUMB Debug/digital.o
 .debug_line    0x000008ac      0x1a9 THUMB Debug/rcc.o
 .debug_line    0x00000a55      0x30a THUMB Debug/adc.o
 .debug_line    0x00000d5f      0x24a THUMB Debug/serial.o
 .debug_line    0x00000fa9      0x211 THUMB Debug/pwm.o
 .debug_line    0x000011ba      0x238 THUMB Debug/timer.o
 .debug_line    0x000013f2      0x492 THUMB Debug/run.o
 .debug_line    0x00001884      0x48d THUMB Debug/cli.o
 .debug_line    0x00001d11      0x25e THUMB Debug/config.o
 .debug_line    0x00001f6f      0x312 THUMB Debug/binary.o
 .debug_line    0x00002281      0x319 THUMB Debug/ow.o
 .debug_line    0x0000259a      0x448 THUMB Debug/can.o
 .debug_line    0x000029e2      0x3ee THUMB Debug/xxhash.o
 .debug_line    0x00002dd0       0xe7 THUMB Debug/thumb_crt0.o
 .debug_line    0x00002eb7      0x100 THUMB Debug/STM32_Startup.o
 .debug_line    0x00002fb7       0xa1 THUMB Debug/getbuildnum.o
 .debug_line    0x00003058      0x6d4 THUMB Debug/stm32f10x_gpio.o
 .debug_line    0x0000372c      0x649 THUMB Debug/stm32f10x_rcc.o
 .debug_line    0x00003d75      0x1f3 THUMB Debug/system_stm32f10x.o
 .debug_line    0x00003f68     0x230f THUMB Debug/stm32f10x_tim.o
 .debug_line    0x00006277      0x15d THUMB Debug/stm32f10x_dbgmcu.o
 .debug_line    0x000063d4      0x894 THUMB Debug/stm32f10x_adc.o
 .debug_line    0x00006c68      0x654 THUMB Debug/stm32f10x_dma.o
 .debug_line    0x000072bc      0x1e7 THUMB Debug/misc.o
 .debug_line    0x000074a3      0x8e2 THUMB Debug/stm32f10x_usart.o
 .debug_line    0x00007d85      0x2f1 THUMB Debug/stm32f10x_exti.o
 .debug_line    0x00008076      0x23c THUMB Debug/stm32f10x_pwr.o
 .debug_line    0x000082b2      0x4b9 THUMB Debug/stm32f10x_flash.o
 .debug_line    0x0000876b      0x1a1 THUMB Debug/stm32f10x_iwdg.o
 .debug_line    0x0000890c      0x7c6 THUMB Debug/stm32f10x_can.o
 .debug_line    0x000090d2      0x7f1 THUMB Debug/stm32f10x_i2c.o
 .debug_line    0x000098c3      0x32c C:/Program Files (x86)/Rowley Associates Limited/CrossWorks for ARM 2.3/lib/libm_v7m_t_le.a(libm2.o)
 .debug_line    0x00009bef      0x5b3 C:/Program Files (x86)/Rowley Associates Limited/CrossWorks for ARM 2.3/lib/libc_v7m_t_le.a(libc2.o)
 .debug_line    0x0000a1a2       0x75 C:/Program Files (x86)/Rowley Associates Limited/CrossWorks for ARM 2.3/lib/libc_v7m_t_le.a(__vfprintf_double_long_long.o)
 .debug_line    0x0000a217       0x74 C:/Program Files (x86)/Rowley Associates Limited/CrossWorks for ARM 2.3/lib/libc_v7m_t_le.a(__vfscanf_double_long_long.o)
 .debug_line    0x0000a28b      0x550 C:/Program Files (x86)/Rowley Associates Limited/CrossWorks for ARM 2.3/lib/libdebugio_v7m_t_le.a(libdebugio.o)
 .debug_line    0x0000a7db       0x74 C:/Program Files (x86)/Rowley Associates Limited/CrossWorks for ARM 2.3/lib/libc_user_libc_v7m_t_le.a(user_libc.o)

.debug_str      0x00000000     0x701e
 .debug_str     0x00000000      0x691 THUMB Debug/main.o
                                0x6e5 (size before relaxing)
 .debug_str     0x00000691      0x8ed THUMB Debug/fet.o
                                0xc95 (size before relaxing)
 .debug_str     0x00000f7e       0x87 THUMB Debug/digital.o
                                0x2b9 (size before relaxing)
 .debug_str     0x00001005       0xff THUMB Debug/rcc.o
                                0x354 (size before relaxing)
 .debug_str     0x00001104      0x758 THUMB Debug/adc.o
                                0xc6f (size before relaxing)
 .debug_str     0x0000185c      0x1dd THUMB Debug/serial.o
                                0xb25 (size before relaxing)
 .debug_str     0x00001a39      0x1b4 THUMB Debug/pwm.o
                                0xc36 (size before relaxing)
 .debug_str     0x00001bed      0x1d4 THUMB Debug/timer.o
                                0x874 (size before relaxing)
 .debug_str     0x00001dc1      0x461 THUMB Debug/run.o
                               0x102d (size before relaxing)
 .debug_str     0x00002222      0x2f8 THUMB Debug/cli.o
                                0xa93 (size before relaxing)
 .debug_str     0x0000251a      0x171 THUMB Debug/config.o
                                0x5d1 (size before relaxing)
 .debug_str     0x0000268b      0x556 THUMB Debug/binary.o
                                0xb85 (size before relaxing)
 .debug_str     0x00002be1      0x1f6 THUMB Debug/ow.o
                                0x666 (size before relaxing)
 .debug_str     0x00002dd7      0x6e5 THUMB Debug/can.o
                               0x12b7 (size before relaxing)
 .debug_str     0x000034bc      0x23b THUMB Debug/xxhash.o
                                0x347 (size before relaxing)
 .debug_str     0x000036f7       0x82 THUMB Debug/getbuildnum.o
                                 0xd8 (size before relaxing)
 .debug_str     0x00003779      0x2a3 THUMB Debug/stm32f10x_gpio.o
                                0x4da (size before relaxing)
 .debug_str     0x00003a1c      0x480 THUMB Debug/stm32f10x_rcc.o
                                0x5db (size before relaxing)
 .debug_str     0x00003e9c       0xd9 THUMB Debug/system_stm32f10x.o
                                0x2a1 (size before relaxing)
 .debug_str     0x00003f75      0x9b1 THUMB Debug/stm32f10x_tim.o
                                0xd9e (size before relaxing)
 .debug_str     0x00004926       0xca THUMB Debug/stm32f10x_dbgmcu.o
                                0x1d0 (size before relaxing)
 .debug_str     0x000049f0      0x49b THUMB Debug/stm32f10x_adc.o
                                0x6bc (size before relaxing)
 .debug_str     0x00004e8b      0x162 THUMB Debug/stm32f10x_dma.o
                                0x38a (size before relaxing)
 .debug_str     0x00004fed      0x138 THUMB Debug/misc.o
                                0x384 (size before relaxing)
 .debug_str     0x00005125      0x3d6 THUMB Debug/stm32f10x_usart.o
                                0x651 (size before relaxing)
 .debug_str     0x000054fb      0x12c THUMB Debug/stm32f10x_exti.o
                                0x330 (size before relaxing)
 .debug_str     0x00005627      0x148 THUMB Debug/stm32f10x_pwr.o
                                0x2d3 (size before relaxing)
 .debug_str     0x0000576f      0x3da THUMB Debug/stm32f10x_flash.o
                                0x5a9 (size before relaxing)
 .debug_str     0x00005b49      0x107 THUMB Debug/stm32f10x_iwdg.o
                                0x21d (size before relaxing)
 .debug_str     0x00005c50      0x351 THUMB Debug/stm32f10x_can.o
                                0x6ef (size before relaxing)
 .debug_str     0x00005fa1      0x3f5 THUMB Debug/stm32f10x_i2c.o
                                0x627 (size before relaxing)
 .debug_str     0x00006396      0x189 C:/Program Files (x86)/Rowley Associates Limited/CrossWorks for ARM 2.3/lib/libm_v7m_t_le.a(libm2.o)
                                0x212 (size before relaxing)
 .debug_str     0x0000651f      0x578 C:/Program Files (x86)/Rowley Associates Limited/CrossWorks for ARM 2.3/lib/libc_v7m_t_le.a(libc2.o)
                                0x655 (size before relaxing)
 .debug_str     0x00006a97       0x71 C:/Program Files (x86)/Rowley Associates Limited/CrossWorks for ARM 2.3/lib/libc_v7m_t_le.a(__vfprintf_double_long_long.o)
                                 0xba (size before relaxing)
 .debug_str     0x00006b08       0x91 C:/Program Files (x86)/Rowley Associates Limited/CrossWorks for ARM 2.3/lib/libc_v7m_t_le.a(__vfscanf_double_long_long.o)
                                 0xda (size before relaxing)
 .debug_str     0x00006b99      0x3b3 C:/Program Files (x86)/Rowley Associates Limited/CrossWorks for ARM 2.3/lib/libdebugio_v7m_t_le.a(libdebugio.o)
                                0x3fc (size before relaxing)
 .debug_str     0x00006f4c       0xd2 C:/Program Files (x86)/Rowley Associates Limited/CrossWorks for ARM 2.3/lib/libc_user_libc_v7m_t_le.a(user_libc.o)
                                0x11b (size before relaxing)

.comment        0x00000000       0x4e
 .comment       0x00000000       0x4e THUMB Debug/main.o
                                 0x4f (size before relaxing)
 .comment       0x00000000       0x4f THUMB Debug/fet.o
 .comment       0x00000000       0x4f THUMB Debug/digital.o
 .comment       0x00000000       0x4f THUMB Debug/rcc.o
 .comment       0x00000000       0x4f THUMB Debug/adc.o
 .comment       0x00000000       0x4f THUMB Debug/serial.o
 .comment       0x00000000       0x4f THUMB Debug/pwm.o
 .comment       0x00000000       0x4f THUMB Debug/timer.o
 .comment       0x00000000       0x4f THUMB Debug/run.o
 .comment       0x00000000       0x4f THUMB Debug/cli.o
 .comment       0x00000000       0x4f THUMB Debug/config.o
 .comment       0x00000000       0x4f THUMB Debug/binary.o
 .comment       0x00000000       0x4f THUMB Debug/ow.o
 .comment       0x00000000       0x4f THUMB Debug/can.o
 .comment       0x00000000       0x4f THUMB Debug/xxhash.o
 .comment       0x00000000       0x4f THUMB Debug/getbuildnum.o
 .comment       0x00000000       0x4f THUMB Debug/stm32f10x_gpio.o
 .comment       0x00000000       0x4f THUMB Debug/stm32f10x_rcc.o
 .comment       0x00000000       0x4f THUMB Debug/system_stm32f10x.o
 .comment       0x00000000       0x4f THUMB Debug/stm32f10x_tim.o
 .comment       0x00000000       0x4f THUMB Debug/stm32f10x_dbgmcu.o
 .comment       0x00000000       0x4f THUMB Debug/stm32f10x_adc.o
 .comment       0x00000000       0x4f THUMB Debug/stm32f10x_dma.o
 .comment       0x00000000       0x4f THUMB Debug/misc.o
 .comment       0x00000000       0x4f THUMB Debug/stm32f10x_usart.o
 .comment       0x00000000       0x4f THUMB Debug/stm32f10x_exti.o
 .comment       0x00000000       0x4f THUMB Debug/stm32f10x_pwr.o
 .comment       0x00000000       0x4f THUMB Debug/stm32f10x_flash.o
 .comment       0x00000000       0x4f THUMB Debug/stm32f10x_iwdg.o
 .comment       0x00000000       0x4f THUMB Debug/stm32f10x_can.o
 .comment       0x00000000       0x4f THUMB Debug/stm32f10x_i2c.o
 .comment       0x00000000       0x4f C:/Program Files (x86)/Rowley Associates Limited/CrossWorks for ARM 2.3/lib/libm_v7m_t_le.a(libm2.o)
 .comment       0x00000000       0x4f C:/Program Files (x86)/Rowley Associates Limited/CrossWorks for ARM 2.3/lib/libc_v7m_t_le.a(libc2.o)
 .comment       0x00000000       0x4f C:/Program Files (x86)/Rowley Associates Limited/CrossWorks for ARM 2.3/lib/libc_v7m_t_le.a(__vfprintf_double_long_long.o)
 .comment       0x00000000       0x4f C:/Program Files (x86)/Rowley Associates Limited/CrossWorks for ARM 2.3/lib/libc_v7m_t_le.a(__vfscanf_double_long_long.o)
 .comment       0x00000000       0x4f C:/Program Files (x86)/Rowley Associates Limited/CrossWorks for ARM 2.3/lib/libdebugio_v7m_t_le.a(libdebugio.o)
 .comment       0x00000000       0x4f C:/Program Files (x86)/Rowley Associates Limited/CrossWorks for ARM 2.3/lib/libc_user_libc_v7m_t_le.a(user_libc.o)

.ARM.attributes
                0x00000000       0x10
 .ARM.attributes
                0x00000000       0x10 THUMB Debug/main.o
 .ARM.attributes
                0x00000010       0x10 THUMB Debug/fet.o
 .ARM.attributes
                0x00000020       0x10 THUMB Debug/digital.o
 .ARM.attributes
                0x00000030       0x10 THUMB Debug/rcc.o
 .ARM.attributes
                0x00000040       0x10 THUMB Debug/adc.o
 .ARM.attributes
                0x00000050       0x10 THUMB Debug/serial.o
 .ARM.attributes
                0x00000060       0x10 THUMB Debug/pwm.o
 .ARM.attributes
                0x00000070       0x10 THUMB Debug/timer.o
 .ARM.attributes
                0x00000080       0x10 THUMB Debug/run.o
 .ARM.attributes
                0x00000090       0x10 THUMB Debug/cli.o
 .ARM.attributes
                0x000000a0       0x10 THUMB Debug/config.o
 .ARM.attributes
                0x000000b0       0x10 THUMB Debug/binary.o
 .ARM.attributes
                0x000000c0       0x10 THUMB Debug/ow.o
 .ARM.attributes
                0x000000d0       0x10 THUMB Debug/can.o
 .ARM.attributes
                0x000000e0       0x10 THUMB Debug/xxhash.o
 .ARM.attributes
                0x000000f0       0x10 THUMB Debug/thumb_crt0.o
 .ARM.attributes
                0x00000100       0x10 THUMB Debug/STM32_Startup.o
 .ARM.attributes
                0x00000110       0x10 THUMB Debug/getbuildnum.o
 .ARM.attributes
                0x00000120       0x10 THUMB Debug/stm32f10x_gpio.o
 .ARM.attributes
                0x00000130       0x10 THUMB Debug/stm32f10x_rcc.o
 .ARM.attributes
                0x00000140       0x10 THUMB Debug/system_stm32f10x.o
 .ARM.attributes
                0x00000150       0x10 THUMB Debug/stm32f10x_tim.o
 .ARM.attributes
                0x00000160       0x10 THUMB Debug/stm32f10x_dbgmcu.o
 .ARM.attributes
                0x00000170       0x10 THUMB Debug/stm32f10x_adc.o
 .ARM.attributes
                0x00000180       0x10 THUMB Debug/stm32f10x_dma.o
 .ARM.attributes
                0x00000190       0x10 THUMB Debug/misc.o
 .ARM.attributes
                0x000001a0       0x10 THUMB Debug/stm32f10x_usart.o
 .ARM.attributes
                0x000001b0       0x10 THUMB Debug/stm32f10x_exti.o
 .ARM.attributes
                0x000001c0       0x10 THUMB Debug/stm32f10x_pwr.o
 .ARM.attributes
                0x000001d0       0x10 THUMB Debug/stm32f10x_flash.o
 .ARM.attributes
                0x000001e0       0x10 THUMB Debug/stm32f10x_iwdg.o
 .ARM.attributes
                0x000001f0       0x10 THUMB Debug/stm32f10x_can.o
 .ARM.attributes
                0x00000200       0x10 THUMB Debug/stm32f10x_i2c.o
 .ARM.attributes
                0x00000210       0x10 C:/Program Files (x86)/Rowley Associates Limited/CrossWorks for ARM 2.3/lib/libm_v7m_t_le.a(libm_asm.o)
 .ARM.attributes
                0x00000220       0x10 C:/Program Files (x86)/Rowley Associates Limited/CrossWorks for ARM 2.3/lib/libm_v7m_t_le.a(libm2.o)
 .ARM.attributes
                0x00000230       0x10 C:/Program Files (x86)/Rowley Associates Limited/CrossWorks for ARM 2.3/lib/libm_v7m_t_le.a(libm2_asm.o)
 .ARM.attributes
                0x00000240       0x10 C:/Program Files (x86)/Rowley Associates Limited/CrossWorks for ARM 2.3/lib/libc_v7m_t_le.a(libc2.o)
 .ARM.attributes
                0x00000250       0x10 C:/Program Files (x86)/Rowley Associates Limited/CrossWorks for ARM 2.3/lib/libc_v7m_t_le.a(libc2_asm.o)
 .ARM.attributes
                0x00000260       0x10 C:/Program Files (x86)/Rowley Associates Limited/CrossWorks for ARM 2.3/lib/libc_v7m_t_le.a(__vfprintf_double_long_long.o)
 .ARM.attributes
                0x00000270       0x10 C:/Program Files (x86)/Rowley Associates Limited/CrossWorks for ARM 2.3/lib/libc_v7m_t_le.a(__vfscanf_double_long_long.o)
 .ARM.attributes
                0x00000280       0x10 C:/Program Files (x86)/Rowley Associates Limited/CrossWorks for ARM 2.3/lib/libc_v7m_t_le.a(libc_asm.o)
 .ARM.attributes
                0x00000290       0x10 C:/Program Files (x86)/Rowley Associates Limited/CrossWorks for ARM 2.3/lib/libdebugio_v7m_t_le.a(libdebugio.o)
 .ARM.attributes
                0x000002a0       0x10 C:/Program Files (x86)/Rowley Associates Limited/CrossWorks for ARM 2.3/lib/libc_user_libc_v7m_t_le.a(user_libc.o)
